###############################################################################
#                                                                             #
# IAR C/C++ Compiler V8.10.3.10338/W32 for 8051         13/Jul/2017  09:26:17 #
# Copyright 2004-2011 IAR Systems AB.                                         #
#                                                                             #
#    Core               =  plain                                              #
#    Code model         =  banked                                             #
#    Data model         =  large                                              #
#    Calling convention =  xdata reentrant                                    #
#    Constant location  =  data_rom                                           #
#    Dptr setup         =  1,16                                               #
#    Source file        =  C:\Qt\qtcreator-2.2.1\ZStack-CC2530-2.5.1a_KeyOK\C #
#                          omponents\mt\MT_UART.c                             #
#    Command line       =  -f C:\Qt\qtcreator-2.2.1\ZStack-CC2530-2.5.1a_KeyO #
#                          K\Projects\zstack\Samples\SampleApp\CC2530DB\..\.. #
#                          \..\Tools\CC2530DB\f8wRouter.cfg (-DCPU32MHZ       #
#                          -DROOT=__near_func -DMAC_CFG_APP_PENDING_QUEUE=TRU #
#                          E -DMAC_CFG_TX_DATA_MAX=5 -DMAC_CFG_TX_MAX=8       #
#                          -DMAC_CFG_RX_MAX=5 -DRTR_NWK) -f                   #
#                          C:\Qt\qtcreator-2.2.1\ZStack-CC2530-2.5.1a_KeyOK\P #
#                          rojects\zstack\Samples\SampleApp\CC2530DB\..\..\.. #
#                          \Tools\CC2530DB\f8wConfig.cfg (-DZIGBEEPRO         #
#                          -DSECURE=0 -DZG_SECURE_DYNAMIC=0 -DREFLECTOR       #
#                          -DDEFAULT_CHANLIST=0x00400000                      #
#                          -DZDAPP_CONFIG_PAN_ID=0xFFFF                       #
#                          -DNWK_START_DELAY=100 -DEXTENDED_JOINING_RANDOM_MA #
#                          SK=0x007F -DBEACON_REQUEST_DELAY=100               #
#                          -DBEACON_REQ_DELAY_MASK=0x00FF                     #
#                          -DLINK_STATUS_JITTER_MASK=0x007F                   #
#                          -DROUTE_EXPIRY_TIME=30 -DAPSC_ACK_WAIT_DURATION_PO #
#                          LLED=3000 -DNWK_INDIRECT_MSG_TIMEOUT=7             #
#                          -DMAX_RREQ_ENTRIES=8 -DAPSC_MAX_FRAME_RETRIES=3    #
#                          -DNWK_MAX_DATA_RETRIES=2                           #
#                          -DMAX_POLL_FAILURE_RETRIES=2 -DMAX_BCAST=9         #
#                          -DAPS_MAX_GROUPS=16 -DMAX_RTG_ENTRIES=40           #
#                          -DNWK_MAX_BINDING_ENTRIES=4                        #
#                          -DMAX_BINDING_CLUSTER_IDS=4 "-DDEFAULT_KEY={0x01,  #
#                          0x03, 0x05, 0x07, 0x09, 0x0B, 0x0D, 0x0F, 0x00,    #
#                          0x02, 0x04, 0x06, 0x08, 0x0A, 0x0C, 0x0D}"         #
#                          -DMAC_MAX_FRAME_SIZE=116                           #
#                          -DZDNWKMGR_MIN_TRANSMISSIONS=20 "-DCONST=const     #
#                          __code" -DGENERIC=__generic                        #
#                          -DRFD_RCVC_ALWAYS_ON=FALSE -DPOLL_RATE=1000        #
#                          -DQUEUED_POLL_RATE=100 -DRESPONSE_POLL_RATE=100)   #
#                          -DREJOIN_POLL_RATE=440 C:\Qt\qtcreator-2.2.1\ZStac #
#                          k-CC2530-2.5.1a_KeyOK\Components\mt\MT_UART.c -D   #
#                          ZTOOL_P1 -D MT_TASK -D MT_SYS_FUNC -D MT_ZDO_FUNC  #
#                          -D LCD_SUPPORTED=DEBUG -lC                         #
#                          C:\Qt\qtcreator-2.2.1\ZStack-CC2530-2.5.1a_KeyOK\P #
#                          rojects\zstack\Samples\SampleApp\CC2530DB\RouterEB #
#                          \List\ -lA C:\Qt\qtcreator-2.2.1\ZStack-CC2530-2.5 #
#                          .1a_KeyOK\Projects\zstack\Samples\SampleApp\CC2530 #
#                          DB\RouterEB\List\ --diag_suppress Pe001,Pa010 -o   #
#                          C:\Qt\qtcreator-2.2.1\ZStack-CC2530-2.5.1a_KeyOK\P #
#                          rojects\zstack\Samples\SampleApp\CC2530DB\RouterEB #
#                          \Obj\ -e --no_code_motion --debug --core=plain     #
#                          --dptr=16,1 --data_model=large                     #
#                          --code_model=banked --calling_convention=xdata_ree #
#                          ntrant --place_constants=data_rom                  #
#                          --nr_virtual_regs 16 -I C:\Qt\qtcreator-2.2.1\ZSta #
#                          ck-CC2530-2.5.1a_KeyOK\Projects\zstack\Samples\Sam #
#                          pleApp\CC2530DB\ -I C:\Qt\qtcreator-2.2.1\ZStack-C #
#                          C2530-2.5.1a_KeyOK\Projects\zstack\Samples\SampleA #
#                          pp\CC2530DB\..\Source\ -I                          #
#                          C:\Qt\qtcreator-2.2.1\ZStack-CC2530-2.5.1a_KeyOK\P #
#                          rojects\zstack\Samples\SampleApp\CC2530DB\..\..\.. #
#                          \ZMain\TI2530DB\ -I C:\Qt\qtcreator-2.2.1\ZStack-C #
#                          C2530-2.5.1a_KeyOK\Projects\zstack\Samples\SampleA #
#                          pp\CC2530DB\..\..\..\..\..\Components\hal\include\ #
#                           -I C:\Qt\qtcreator-2.2.1\ZStack-CC2530-2.5.1a_Key #
#                          OK\Projects\zstack\Samples\SampleApp\CC2530DB\..\. #
#                          .\..\..\..\Components\hal\target\CC2530EB\ -I      #
#                          C:\Qt\qtcreator-2.2.1\ZStack-CC2530-2.5.1a_KeyOK\P #
#                          rojects\zstack\Samples\SampleApp\CC2530DB\..\..\.. #
#                          \..\..\Components\mac\include\ -I                  #
#                          C:\Qt\qtcreator-2.2.1\ZStack-CC2530-2.5.1a_KeyOK\P #
#                          rojects\zstack\Samples\SampleApp\CC2530DB\..\..\.. #
#                          \..\..\Components\mac\high_level\ -I               #
#                          C:\Qt\qtcreator-2.2.1\ZStack-CC2530-2.5.1a_KeyOK\P #
#                          rojects\zstack\Samples\SampleApp\CC2530DB\..\..\.. #
#                          \..\..\Components\mac\low_level\srf04\ -I          #
#                          C:\Qt\qtcreator-2.2.1\ZStack-CC2530-2.5.1a_KeyOK\P #
#                          rojects\zstack\Samples\SampleApp\CC2530DB\..\..\.. #
#                          \..\..\Components\mac\low_level\srf04\single_chip\ #
#                           -I C:\Qt\qtcreator-2.2.1\ZStack-CC2530-2.5.1a_Key #
#                          OK\Projects\zstack\Samples\SampleApp\CC2530DB\..\. #
#                          .\..\..\..\Components\mt\ -I                       #
#                          C:\Qt\qtcreator-2.2.1\ZStack-CC2530-2.5.1a_KeyOK\P #
#                          rojects\zstack\Samples\SampleApp\CC2530DB\..\..\.. #
#                          \..\..\Components\osal\include\ -I                 #
#                          C:\Qt\qtcreator-2.2.1\ZStack-CC2530-2.5.1a_KeyOK\P #
#                          rojects\zstack\Samples\SampleApp\CC2530DB\..\..\.. #
#                          \..\..\Components\services\saddr\ -I               #
#                          C:\Qt\qtcreator-2.2.1\ZStack-CC2530-2.5.1a_KeyOK\P #
#                          rojects\zstack\Samples\SampleApp\CC2530DB\..\..\.. #
#                          \..\..\Components\services\sdata\ -I               #
#                          C:\Qt\qtcreator-2.2.1\ZStack-CC2530-2.5.1a_KeyOK\P #
#                          rojects\zstack\Samples\SampleApp\CC2530DB\..\..\.. #
#                          \..\..\Components\stack\af\ -I                     #
#                          C:\Qt\qtcreator-2.2.1\ZStack-CC2530-2.5.1a_KeyOK\P #
#                          rojects\zstack\Samples\SampleApp\CC2530DB\..\..\.. #
#                          \..\..\Components\stack\nwk\ -I                    #
#                          C:\Qt\qtcreator-2.2.1\ZStack-CC2530-2.5.1a_KeyOK\P #
#                          rojects\zstack\Samples\SampleApp\CC2530DB\..\..\.. #
#                          \..\..\Components\stack\sapi\ -I                   #
#                          C:\Qt\qtcreator-2.2.1\ZStack-CC2530-2.5.1a_KeyOK\P #
#                          rojects\zstack\Samples\SampleApp\CC2530DB\..\..\.. #
#                          \..\..\Components\stack\sec\ -I                    #
#                          C:\Qt\qtcreator-2.2.1\ZStack-CC2530-2.5.1a_KeyOK\P #
#                          rojects\zstack\Samples\SampleApp\CC2530DB\..\..\.. #
#                          \..\..\Components\stack\sys\ -I                    #
#                          C:\Qt\qtcreator-2.2.1\ZStack-CC2530-2.5.1a_KeyOK\P #
#                          rojects\zstack\Samples\SampleApp\CC2530DB\..\..\.. #
#                          \..\..\Components\stack\zdo\ -I                    #
#                          C:\Qt\qtcreator-2.2.1\ZStack-CC2530-2.5.1a_KeyOK\P #
#                          rojects\zstack\Samples\SampleApp\CC2530DB\..\..\.. #
#                          \..\..\Components\zmac\ -I                         #
#                          C:\Qt\qtcreator-2.2.1\ZStack-CC2530-2.5.1a_KeyOK\P #
#                          rojects\zstack\Samples\SampleApp\CC2530DB\..\..\.. #
#                          \..\..\Components\zmac\f8w\ -Ohz                   #
#                          --require_prototypes                               #
#    List file          =  C:\Qt\qtcreator-2.2.1\ZStack-CC2530-2.5.1a_KeyOK\P #
#                          rojects\zstack\Samples\SampleApp\CC2530DB\RouterEB #
#                          \List\MT_UART.lst                                  #
#    Object file        =  C:\Qt\qtcreator-2.2.1\ZStack-CC2530-2.5.1a_KeyOK\P #
#                          rojects\zstack\Samples\SampleApp\CC2530DB\RouterEB #
#                          \Obj\MT_UART.r51                                   #
#                                                                             #
#                                                                             #
###############################################################################

C:\Qt\qtcreator-2.2.1\ZStack-CC2530-2.5.1a_KeyOK\Components\mt\MT_UART.c
      1          /***************************************************************************************************
      2            Filename:       MT_UART.c
      3            Revised:        $Date: 2009-03-12 16:25:22 -0700 (Thu, 12 Mar 2009) $
      4            Revision:       $Revision: 19404 $
      5          
      6            Description:  This module handles anything dealing with the serial port.
      7          
      8            Copyright 2007 Texas Instruments Incorporated. All rights reserved.
      9          
     10            IMPORTANT: Your use of this Software is limited to those specific rights
     11            granted under the terms of a software license agreement between the user
     12            who downloaded the software, his/her employer (which must be your employer)
     13            and Texas Instruments Incorporated (the "License").  You may not use this
     14            Software unless you agree to abide by the terms of the License. The License
     15            limits your use, and you acknowledge, that the Software may not be modified,
     16            copied or distributed unless embedded on a Texas Instruments microcontroller
     17            or used solely and exclusively in conjunction with a Texas Instruments radio
     18            frequency transceiver, which is integrated into your product.  Other than for
     19            the foregoing purpose, you may not use, reproduce, copy, prepare derivative
     20            works of, modify, distribute, perform, display or sell this Software and/or
     21            its documentation for any purpose.
     22          
     23            YOU FURTHER ACKNOWLEDGE AND AGREE THAT THE SOFTWARE AND DOCUMENTATION ARE
     24            PROVIDED AS IS?WITHOUT WARRANTY OF ANY KIND, EITHER EXPRESS OR IMPLIED,
     25            INCLUDING WITHOUT LIMITATION, ANY WARRANTY OF MERCHANTABILITY, TITLE,
     26            NON-INFRINGEMENT AND FITNESS FOR A PARTICULAR PURPOSE. IN NO EVENT SHALL
     27            TEXAS INSTRUMENTS OR ITS LICENSORS BE LIABLE OR OBLIGATED UNDER CONTRACT,
     28            NEGLIGENCE, STRICT LIABILITY, CONTRIBUTION, BREACH OF WARRANTY, OR OTHER
     29            LEGAL EQUITABLE THEORY ANY DIRECT OR INDIRECT DAMAGES OR EXPENSES
     30            INCLUDING BUT NOT LIMITED TO ANY INCIDENTAL, SPECIAL, INDIRECT, PUNITIVE
     31            OR CONSEQUENTIAL DAMAGES, LOST PROFITS OR LOST DATA, COST OF PROCUREMENT
     32            OF SUBSTITUTE GOODS, TECHNOLOGY, SERVICES, OR ANY CLAIMS BY THIRD PARTIES
     33            (INCLUDING BUT NOT LIMITED TO ANY DEFENSE THEREOF), OR OTHER SIMILAR COSTS.
     34          
     35            Should you have any questions regarding your right to use this Software,
     36            contact Texas Instruments Incorporated at www.TI.com.
     37          
     38          ***************************************************************************************************/
     39          
     40          /***************************************************************************************************
     41           * INCLUDES
     42           ***************************************************************************************************/
     43          #include "ZComDef.h"
     44          #include "OSAL.h"
     45          #include "hal_uart.h"
     46          #include "MT.h"
     47          #include "MT_UART.h"
     48          #include "OSAL_Memory.h"
     49          
     50          
     51          /***************************************************************************************************
     52           * MACROS
     53           ***************************************************************************************************/
     54          
     55          /***************************************************************************************************
     56           * CONSTANTS
     57           ***************************************************************************************************/
     58          /* State values for ZTool protocal */
     59          #define SOP_STATE      0x00
     60          #define CMD_STATE1     0x01
     61          #define CMD_STATE2     0x02
     62          #define LEN_STATE      0x03
     63          #define DATA_STATE     0x04
     64          #define FCS_STATE      0x05
     65          
     66          /***************************************************************************************************
     67           *                                         GLOBAL VARIABLES
     68           ***************************************************************************************************/
     69          /* Used to indentify the application ID for osal task */

   \                                 In  segment XDATA_Z, align 1, keep-with-next
     70          byte App_TaskID;
   \                     App_TaskID:
   \   000000                DS 1
   \   000001                REQUIRE __INIT_XDATA_Z
     71          
     72          /* ZTool protocal parameters */

   \                                 In  segment XDATA_Z, align 1, keep-with-next
     73          uint8 state;
   \                     state:
   \   000000                DS 1
   \   000001                REQUIRE __INIT_XDATA_Z

   \                                 In  segment XDATA_Z, align 1, keep-with-next
     74          uint8  CMD_Token[2];
   \                     CMD_Token:
   \   000000                DS 2
   \   000002                REQUIRE __INIT_XDATA_Z

   \                                 In  segment XDATA_Z, align 1, keep-with-next
     75          uint8  LEN_Token;
   \                     LEN_Token:
   \   000000                DS 1
   \   000001                REQUIRE __INIT_XDATA_Z

   \                                 In  segment XDATA_Z, align 1, keep-with-next
     76          uint8  FSC_Token;
   \                     FSC_Token:
   \   000000                DS 1
   \   000001                REQUIRE __INIT_XDATA_Z

   \                                 In  segment XDATA_Z, align 1, keep-with-next
     77          mtOSALSerialData_t  *pMsg;
   \                     pMsg:
   \   000000                DS 2
   \   000002                REQUIRE __INIT_XDATA_Z

   \                                 In  segment XDATA_Z, align 1, keep-with-next
     78          uint8  tempDataLen;
   \                     tempDataLen:
   \   000000                DS 1
   \   000001                REQUIRE __INIT_XDATA_Z
     79          
     80          #if defined (ZAPP_P1) || defined (ZAPP_P2)
     81          uint16  MT_UartMaxZAppBufLen;
     82          bool    MT_UartZAppRxStatus;
     83          #endif
     84          
     85          
     86          /***************************************************************************************************
     87           *                                          LOCAL FUNCTIONS
     88           ***************************************************************************************************/
     89          
     90          /***************************************************************************************************
     91           * @fn      MT_UartInit
     92           *
     93           * @brief   Initialize MT with UART support
     94           *
     95           * @param   None
     96           *
     97           * @return  None
     98          ***************************************************************************************************/

   \                                 In  segment BANKED_CODE, align 1, keep-with-next
     99          void MT_UartInit ()
   \                     MT_UartInit:
    100          {
   \   000000   C082         PUSH    DPL
   \   000002   C083         PUSH    DPH
   \   000004                ; Saved register size: 2
   \   000004                ; Auto size: 29
   \   000004   74E3         MOV     A,#-0x1d
   \   000006   12....       LCALL   ?ALLOC_XSTACK8
    101            halUARTCfg_t uartConfig;
    102          
    103            /* Initialize APP ID */
    104            App_TaskID = 0;
   \   000009   90....       MOV     DPTR,#App_TaskID
   \   00000C   E4           CLR     A
   \   00000D   12....       LCALL   ?Subroutine1 & 0xFFFF
    105          
    106            /* UART Configuration */
    107            uartConfig.configured           = TRUE;
   \                     ??CrossCallReturnLabel_0:
   \   000010   04           INC     A
   \   000011   F0           MOVX    @DPTR,A
    108            uartConfig.baudRate             = MT_UART_DEFAULT_BAUDRATE;
   \   000012   12....       LCALL   ?XSTACK_DISP0_8
   \   000015   7402         MOV     A,#0x2
   \   000017   F0           MOVX    @DPTR,A
    109            uartConfig.flowControl          = MT_UART_DEFAULT_OVERFLOW;
   \   000018   12....       LCALL   ?XSTACK_DISP0_8
   \   00001B   E4           CLR     A
   \   00001C   F0           MOVX    @DPTR,A
    110            uartConfig.flowControlThreshold = MT_UART_DEFAULT_THRESHOLD;
   \   00001D   7403         MOV     A,#0x3
   \   00001F   12....       LCALL   ?XSTACK_DISP0_8
   \   000022   7440         MOV     A,#0x40
   \   000024   F0           MOVX    @DPTR,A
   \   000025   A3           INC     DPTR
   \   000026   E4           CLR     A
   \   000027   F0           MOVX    @DPTR,A
    111            uartConfig.rx.maxBufSize        = MT_UART_DEFAULT_MAX_RX_BUFF;
   \   000028   740A         MOV     A,#0xa
   \   00002A   12....       LCALL   ?XSTACK_DISP0_8
   \   00002D   7480         MOV     A,#-0x80
   \   00002F   F0           MOVX    @DPTR,A
   \   000030   A3           INC     DPTR
   \   000031   E4           CLR     A
   \   000032   F0           MOVX    @DPTR,A
    112            uartConfig.tx.maxBufSize        = MT_UART_DEFAULT_MAX_TX_BUFF;
   \   000033   7412         MOV     A,#0x12
   \   000035   12....       LCALL   ?XSTACK_DISP0_8
   \   000038   7480         MOV     A,#-0x80
   \   00003A   F0           MOVX    @DPTR,A
   \   00003B   A3           INC     DPTR
   \   00003C   E4           CLR     A
   \   00003D   F0           MOVX    @DPTR,A
    113            uartConfig.idleTimeout          = MT_UART_DEFAULT_IDLE_TIMEOUT;
   \   00003E   7405         MOV     A,#0x5
   \   000040   12....       LCALL   ?XSTACK_DISP0_8
   \   000043   7406         MOV     A,#0x6
   \   000045   F0           MOVX    @DPTR,A
    114            uartConfig.intEnable            = TRUE;
   \   000046   7416         MOV     A,#0x16
   \   000048   12....       LCALL   ?XSTACK_DISP0_8
   \   00004B   7401         MOV     A,#0x1
   \   00004D   F0           MOVX    @DPTR,A
    115          #if defined (ZTOOL_P1) || defined (ZTOOL_P2)
    116            uartConfig.callBackFunc         = MT_UartProcessZToolData;
   \   00004E   741B         MOV     A,#0x1b
   \   000050   12....       LCALL   ?XSTACK_DISP0_8
   \   000053   74..         MOV     A,#??MT_UartProcessZToolData?relay & 0xff
   \   000055   F0           MOVX    @DPTR,A
   \   000056   A3           INC     DPTR
   \   000057   74..         MOV     A,#(??MT_UartProcessZToolData?relay >> 8) & 0xff
   \   000059   12....       LCALL   ?Subroutine1 & 0xFFFF
    117          #elif defined (ZAPP_P1) || defined (ZAPP_P2)
    118            uartConfig.callBackFunc         = MT_UartProcessZAppData;
    119          #else
    120            uartConfig.callBackFunc         = NULL;
    121          #endif
    122          
    123            /* Start UART */
    124          #if defined (MT_UART_DEFAULT_PORT)
    125            HalUARTOpen (MT_UART_DEFAULT_PORT, &uartConfig);
   \                     ??CrossCallReturnLabel_1:
   \   00005C   AA82         MOV     R2,DPL
   \   00005E   AB83         MOV     R3,DPH
   \   000060   7900         MOV     R1,#0x0
   \   000062   12....       LCALL   ??HalUARTOpen?relay
    126          #else
    127            /* Silence IAR compiler warning */
    128            (void)uartConfig;
    129          #endif
    130          
    131            /* Initialize for ZApp */
    132          #if defined (ZAPP_P1) || defined (ZAPP_P2)
    133            /* Default max bytes that ZAPP can take */
    134            MT_UartMaxZAppBufLen  = 1;
    135            MT_UartZAppRxStatus   = MT_UART_ZAPP_RX_READY;
    136          #endif
    137          
    138          }
   \   000065   741D         MOV     A,#0x1d
   \   000067   12....       LCALL   ?DEALLOC_XSTACK8
   \   00006A                REQUIRE ?Subroutine0
   \   00006A                ; // Fall through to label ?Subroutine0

   \                                 In  segment BANKED_CODE, align 1, keep-with-next
   \                     ?Subroutine0:
   \   000000   D083         POP     DPH
   \   000002   D082         POP     DPL
   \   000004   02....       LJMP    ?BRET

   \                                 In  segment BANKED_CODE, align 1, keep-with-next
   \                     ?Subroutine1:
   \   000000   F0           MOVX    @DPTR,A
   \   000001                ; Setup parameters for call to function HalUARTOpen
   \   000001                ; Setup parameters for call to function osal_memcpy
   \   000001   85..82       MOV     DPL,?XSP + 0
   \   000004   85..83       MOV     DPH,?XSP + 1
   \   000007   22           RET
    139          
    140          /***************************************************************************************************
    141           * @fn      MT_SerialRegisterTaskID
    142           *
    143           * @brief   This function registers the taskID of the application so it knows
    144           *          where to send the messages whent they come in.
    145           *
    146           * @param   void
    147           *
    148           * @return  void
    149           ***************************************************************************************************/

   \                                 In  segment BANKED_CODE, align 1, keep-with-next
    150          void MT_UartRegisterTaskID( byte taskID )
   \                     MT_UartRegisterTaskID:
    151          {
   \   000000   C082         PUSH    DPL
   \   000002   C083         PUSH    DPH
   \   000004                ; Saved register size: 2
   \   000004                ; Auto size: 0
    152            App_TaskID = taskID;
   \   000004   E9           MOV     A,R1
   \   000005   90....       MOV     DPTR,#App_TaskID
   \   000008   F0           MOVX    @DPTR,A
    153          }
   \   000009   80..         SJMP    ?Subroutine0
    154          
    155          /***************************************************************************************************
    156           * @fn      SPIMgr_CalcFCS
    157           *
    158           * @brief   Calculate the FCS of a message buffer by XOR'ing each byte.
    159           *          Remember to NOT include SOP and FCS fields, so start at the CMD field.
    160           *
    161           * @param   byte *msg_ptr - message pointer
    162           * @param   byte len - length (in bytes) of message
    163           *
    164           * @return  result byte
    165           ***************************************************************************************************/

   \                                 In  segment BANKED_CODE, align 1, keep-with-next
    166          byte MT_UartCalcFCS( uint8 *msg_ptr, uint8 len )
   \                     MT_UartCalcFCS:
    167          {
   \   000000   C082         PUSH    DPL
   \   000002   C083         PUSH    DPH
   \   000004                ; Saved register size: 2
   \   000004                ; Auto size: 0
   \   000004   E9           MOV     A,R1
   \   000005   FC           MOV     R4,A
    168            byte x;
    169            byte xorResult;
    170          
    171            xorResult = 0;
   \   000006   7900         MOV     R1,#0x0
    172          
    173            for ( x = 0; x < len; x++, msg_ptr++ )
   \   000008   7800         MOV     R0,#0x0
   \   00000A   800E         SJMP    ??MT_UartCalcFCS_0
    174              xorResult = xorResult ^ *msg_ptr;
   \                     ??MT_UartCalcFCS_1:
   \   00000C   8A82         MOV     DPL,R2
   \   00000E   8B83         MOV     DPH,R3
   \   000010   E0           MOVX    A,@DPTR
   \   000011   C9           XCH     A,R1
   \   000012   69           XRL     A,R1
   \   000013   F9           MOV     R1,A
   \   000014   08           INC     R0
   \   000015   A3           INC     DPTR
   \   000016   AA82         MOV     R2,DPL
   \   000018   AB83         MOV     R3,DPH
   \                     ??MT_UartCalcFCS_0:
   \   00001A   E8           MOV     A,R0
   \   00001B   C3           CLR     C
   \   00001C   9C           SUBB    A,R4
   \   00001D   40ED         JC      ??MT_UartCalcFCS_1
    175          
    176            return ( xorResult );
   \   00001F   80..         SJMP    ?Subroutine0
    177          }
    178          
    179          
    180          /***************************************************************************************************
    181           * @fn      MT_UartProcessZToolData
    182           *
    183           * @brief   | SOP | Data Length  |   CMD   |   Data   |  FCS  |
    184           *          |  1  |     1        |    2    |  0-Len   |   1   |
    185           *
    186           *          Parses the data and determine either is SPI or just simply serial data
    187           *          then send the data to correct place (MT or APP)
    188           *
    189           * @param   port     - UART port
    190           *          event    - Event that causes the callback
    191           *
    192           *
    193           * @return  None
    194           ***************************************************************************************************/

   \                                 In  segment BANKED_CODE, align 1, keep-with-next
    195          void MT_UartProcessZToolData ( uint8 port, uint8 event )
   \                     MT_UartProcessZToolData:
    196          {
   \   000000   74F1         MOV     A,#-0xf
   \   000002   12....       LCALL   ?BANKED_ENTER_XDATA
   \   000005                ; Saved register size: 15
   \   000005                ; Auto size: 50
   \   000005   74CE         MOV     A,#-0x32
   \   000007   12....       LCALL   ?ALLOC_XSTACK8
   \   00000A   E9           MOV     A,R1
   \   00000B   FE           MOV     R6,A
    197            uint8  buf[50];  //保存接收到的数据，最长50字节
    198            uint8  flag = 0; // 标志是否接收到数据
   \   00000C   7F00         MOV     R7,#0x0
    199            uint8  len = 0;  // 记录数据长度
   \   00000E   8F..         MOV     ?V0 + 2,R7
    200            (void)event;  // Intentionally unreferenced parameter
   \   000010   8020         SJMP    ??MT_UartProcessZToolData_0
    201          
    202            while (Hal_UART_RxBufLen(port))  // 串口接收到数据时进入循环
    203            {
    204            	flag = 1;   // 标记收到串口数据
   \                     ??MT_UartProcessZToolData_1:
   \   000012   7F01         MOV     R7,#0x1
    205              HalUARTRead (port, &buf[len], 1); // 将串口数据记录下来
   \   000014                ; Setup parameters for call to function HalUARTRead
   \   000014   7C01         MOV     R4,#0x1
   \   000016   7D00         MOV     R5,#0x0
   \   000018   85....       MOV     ?V0 + 0,?V0 + 2
   \   00001B   85..82       MOV     DPL,?XSP + 0
   \   00001E   85..83       MOV     DPH,?XSP + 1
   \   000021   E582         MOV     A,DPL
   \   000023   25..         ADD     A,?V0 + 0
   \   000025   FA           MOV     R2,A
   \   000026   E583         MOV     A,DPH
   \   000028   3400         ADDC    A,#0x0
   \   00002A   FB           MOV     R3,A
   \   00002B   EE           MOV     A,R6
   \   00002C   F9           MOV     R1,A
   \   00002D   12....       LCALL   ??HalUARTRead?relay
    206          	len++;      // 已记录的数据字节数
   \   000030   05..         INC     ?V0 + 2
    207            }
   \                     ??MT_UartProcessZToolData_0:
   \   000032                ; Setup parameters for call to function Hal_UART_RxBufLen
   \   000032   EE           MOV     A,R6
   \   000033   F9           MOV     R1,A
   \   000034   12....       LCALL   ??Hal_UART_RxBufLen?relay
   \   000037   8B..         MOV     ?V0 + 1,R3
   \   000039   EA           MOV     A,R2
   \   00003A   45..         ORL     A,?V0 + 1
   \   00003C   70D4         JNZ     ??MT_UartProcessZToolData_1
    208            if (flag == 1){  // 有串口数据时通知App任务
   \   00003E   7401         MOV     A,#0x1
   \   000040   6F           XRL     A,R7
   \   000041   6003         JZ      $+5
   \   000043   02....       LJMP    ??MT_UartProcessZToolData_2 & 0xFFFF
    209            	pMsg = (mtOSALSerialData_t*)
    210          		osal_msg_allocate(sizeof(mtOSALSerialData_t)+1+len);
   \   000046                ; Setup parameters for call to function osal_msg_allocate
   \   000046   85....       MOV     ?V0 + 0,?V0 + 2
   \   000049   E5..         MOV     A,?V0 + 0
   \   00004B   2405         ADD     A,#0x5
   \   00004D   FA           MOV     R2,A
   \   00004E   E4           CLR     A
   \   00004F   3400         ADDC    A,#0x0
   \   000051   FB           MOV     R3,A
   \   000052   12....       LCALL   ??osal_msg_allocate?relay
   \   000055   90....       MOV     DPTR,#pMsg
   \   000058   EA           MOV     A,R2
   \   000059   F0           MOVX    @DPTR,A
   \   00005A   A3           INC     DPTR
   \   00005B   EB           MOV     A,R3
   \   00005C   F0           MOVX    @DPTR,A
    211          	if (pMsg){
   \   00005D   90....       MOV     DPTR,#pMsg
   \   000060   E0           MOVX    A,@DPTR
   \   000061   F8           MOV     R0,A
   \   000062   A3           INC     DPTR
   \   000063   E0           MOVX    A,@DPTR
   \   000064   F9           MOV     R1,A
   \   000065   E8           MOV     A,R0
   \   000066   49           ORL     A,R1
   \   000067   6077         JZ      ??MT_UartProcessZToolData_2
    212          		pMsg->hdr.event = CMD_SERIAL_MSG;
   \   000069   E0           MOVX    A,@DPTR
   \   00006A   F583         MOV     DPH,A
   \   00006C   8882         MOV     DPL,R0
   \   00006E   7401         MOV     A,#0x1
   \   000070   F0           MOVX    @DPTR,A
    213          		pMsg->msg = (uint8*)(pMsg+1);//把指针移到存放数据的部分
   \   000071   90....       MOV     DPTR,#pMsg
   \   000074   E0           MOVX    A,@DPTR
   \   000075   2404         ADD     A,#0x4
   \   000077   F8           MOV     R0,A
   \   000078   A3           INC     DPTR
   \   000079   E0           MOVX    A,@DPTR
   \   00007A   3400         ADDC    A,#0x0
   \   00007C   F9           MOV     R1,A
   \   00007D   90....       MOV     DPTR,#pMsg
   \   000080   E0           MOVX    A,@DPTR
   \   000081   FA           MOV     R2,A
   \   000082   A3           INC     DPTR
   \   000083   E0           MOVX    A,@DPTR
   \   000084   F583         MOV     DPH,A
   \   000086   8A82         MOV     DPL,R2
   \   000088   A3           INC     DPTR
   \   000089   A3           INC     DPTR
   \   00008A   E8           MOV     A,R0
   \   00008B   F0           MOVX    @DPTR,A
   \   00008C   A3           INC     DPTR
   \   00008D   E9           MOV     A,R1
   \   00008E   F0           MOVX    @DPTR,A
    214          		pMsg->msg[0] = len;          // 第一个位置为长度，后面数据
   \   00008F   12....       LCALL   ?Subroutine2 & 0xFFFF
   \                     ??CrossCallReturnLabel_3:
   \   000092   F8           MOV     R0,A
   \   000093   A3           INC     DPTR
   \   000094   E0           MOVX    A,@DPTR
   \   000095   F583         MOV     DPH,A
   \   000097   8882         MOV     DPL,R0
   \   000099   E5..         MOV     A,?V0 + 2
   \   00009B   12....       LCALL   ?Subroutine1 & 0xFFFF
    215                  osal_memcpy(pMsg->msg +1, buf, len );
   \                     ??CrossCallReturnLabel_2:
   \   00009E   A982         MOV     R1,DPL
   \   0000A0   AA83         MOV     R2,DPH
   \   0000A2   89..         MOV     ?V0 + 4,R1
   \   0000A4   8A..         MOV     ?V0 + 5,R2
   \   0000A6   75..00       MOV     ?V0 + 6,#0x0
   \   0000A9   78..         MOV     R0,#?V0 + 4
   \   0000AB   12....       LCALL   ?PUSH_XSTACK_I_THREE
   \   0000AE   AC..         MOV     R4,?V0 + 2
   \   0000B0   7D00         MOV     R5,#0x0
   \   0000B2   12....       LCALL   ?Subroutine2 & 0xFFFF
   \                     ??CrossCallReturnLabel_4:
   \   0000B5   2401         ADD     A,#0x1
   \   0000B7   FA           MOV     R2,A
   \   0000B8   A3           INC     DPTR
   \   0000B9   E0           MOVX    A,@DPTR
   \   0000BA   3400         ADDC    A,#0x0
   \   0000BC   FB           MOV     R3,A
   \   0000BD   12....       LCALL   ??osal_memcpy?relay
   \   0000C0   7403         MOV     A,#0x3
   \   0000C2   12....       LCALL   ?DEALLOC_XSTACK8
    216          		osal_msg_send(App_TaskID,(uint8 *)pMsg); // 给app任务发消息
   \   0000C5                ; Setup parameters for call to function osal_msg_send
   \   0000C5   90....       MOV     DPTR,#pMsg
   \   0000C8   E0           MOVX    A,@DPTR
   \   0000C9   FA           MOV     R2,A
   \   0000CA   A3           INC     DPTR
   \   0000CB   E0           MOVX    A,@DPTR
   \   0000CC   FB           MOV     R3,A
   \   0000CD   90....       MOV     DPTR,#App_TaskID
   \   0000D0   E0           MOVX    A,@DPTR
   \   0000D1   F9           MOV     R1,A
   \   0000D2   12....       LCALL   ??osal_msg_send?relay
    217          		osal_msg_deallocate((uint8 *)pMsg);
   \   0000D5                ; Setup parameters for call to function osal_msg_deallocate
   \   0000D5   90....       MOV     DPTR,#pMsg
   \   0000D8   E0           MOVX    A,@DPTR
   \   0000D9   FA           MOV     R2,A
   \   0000DA   A3           INC     DPTR
   \   0000DB   E0           MOVX    A,@DPTR
   \   0000DC   FB           MOV     R3,A
   \   0000DD   12....       LCALL   ??osal_msg_deallocate?relay
    218          	}
    219            }
    220          }
   \                     ??MT_UartProcessZToolData_2:
   \   0000E0   7432         MOV     A,#0x32
   \   0000E2   12....       LCALL   ?DEALLOC_XSTACK8
   \   0000E5   7F07         MOV     R7,#0x7
   \   0000E7   02....       LJMP    ?BANKED_LEAVE_XDATA

   \                                 In  segment BANKED_CODE, align 1, keep-with-next
   \                     ?Subroutine2:
   \   000000   90....       MOV     DPTR,#pMsg
   \   000003   E0           MOVX    A,@DPTR
   \   000004   F8           MOV     R0,A
   \   000005   A3           INC     DPTR
   \   000006   E0           MOVX    A,@DPTR
   \   000007   F583         MOV     DPH,A
   \   000009   8882         MOV     DPL,R0
   \   00000B   A3           INC     DPTR
   \   00000C   A3           INC     DPTR
   \   00000D   E0           MOVX    A,@DPTR
   \   00000E   22           RET

   \                                 In  segment BANK_RELAYS, align 1
   \                     ??MT_UartInit?relay:
   \   000000   12....       LCALL   ?BDISPATCH
   \   000003   ......       DC24    MT_UartInit

   \                                 In  segment BANK_RELAYS, align 1
   \                     ??MT_UartRegisterTaskID?relay:
   \   000000   12....       LCALL   ?BDISPATCH
   \   000003   ......       DC24    MT_UartRegisterTaskID

   \                                 In  segment BANK_RELAYS, align 1
   \                     ??MT_UartCalcFCS?relay:
   \   000000   12....       LCALL   ?BDISPATCH
   \   000003   ......       DC24    MT_UartCalcFCS

   \                                 In  segment BANK_RELAYS, align 1
   \                     ??MT_UartProcessZToolData?relay:
   \   000000   12....       LCALL   ?BDISPATCH
   \   000003   ......       DC24    MT_UartProcessZToolData
    221          
    222          #if defined (ZAPP_P1) || defined (ZAPP_P2)
    223          /***************************************************************************************************
    224           * @fn      MT_UartProcessZAppData
    225           *
    226           * @brief   | SOP | CMD  |   Data Length   | FSC  |
    227           *          |  1  |  2   |       1         |  1   |
    228           *
    229           *          Parses the data and determine either is SPI or just simply serial data
    230           *          then send the data to correct place (MT or APP)
    231           *
    232           * @param   port    - UART port
    233           *          event   - Event that causes the callback
    234           *
    235           *
    236           * @return  None
    237           ***************************************************************************************************/
    238          void MT_UartProcessZAppData ( uint8 port, uint8 event )
    239          {
    240          
    241            osal_event_hdr_t  *msg_ptr;
    242            uint16 length = 0;
    243            uint16 rxBufLen  = Hal_UART_RxBufLen(MT_UART_DEFAULT_PORT);
    244          
    245            /*
    246               If maxZAppBufferLength is 0 or larger than current length
    247               the entire length of the current buffer is returned.
    248            */
    249            if ((MT_UartMaxZAppBufLen != 0) && (MT_UartMaxZAppBufLen <= rxBufLen))
    250            {
    251              length = MT_UartMaxZAppBufLen;
    252            }
    253            else
    254            {
    255              length = rxBufLen;
    256            }
    257          
    258            /* Verify events */
    259            if (event == HAL_UART_TX_FULL)
    260            {
    261              // Do something when TX if full
    262              return;
    263            }
    264          
    265            if (event & ( HAL_UART_RX_FULL | HAL_UART_RX_ABOUT_FULL | HAL_UART_RX_TIMEOUT))
    266            {
    267              if ( App_TaskID )
    268              {
    269                /*
    270                   If Application is ready to receive and there is something
    271                   in the Rx buffer then send it up
    272                */
    273                if ((MT_UartZAppRxStatus == MT_UART_ZAPP_RX_READY ) && (length != 0))
    274                {
    275                  /* Disable App flow control until it processes the current data */
    276                   MT_UartAppFlowControl (MT_UART_ZAPP_RX_NOT_READY);
    277          
    278                  /* 2 more bytes are added, 1 for CMD type, other for length */
    279                  msg_ptr = (osal_event_hdr_t *)osal_msg_allocate( length + sizeof(osal_event_hdr_t) );
    280                  if ( msg_ptr )
    281                  {
    282                    msg_ptr->event = SPI_INCOMING_ZAPP_DATA;
    283                    msg_ptr->status = length;
    284          
    285                    /* Read the data of Rx buffer */
    286                    HalUARTRead( MT_UART_DEFAULT_PORT, (uint8 *)(msg_ptr + 1), length );
    287          
    288                    /* Send the raw data to application...or where ever */
    289                    osal_msg_send( App_TaskID, (uint8 *)msg_ptr );
    290                  }
    291                }
    292              }
    293            }
    294          }
    295          
    296          /***************************************************************************************************
    297           * @fn      SPIMgr_ZAppBufferLengthRegister
    298           *
    299           * @brief
    300           *
    301           * @param   maxLen - Max Length that the application wants at a time
    302           *
    303           * @return  None
    304           *
    305           ***************************************************************************************************/
    306          void MT_UartZAppBufferLengthRegister ( uint16 maxLen )
    307          {
    308            /* If the maxLen is larger than the RX buff, something is not right */
    309            if (maxLen <= MT_UART_DEFAULT_MAX_RX_BUFF)
    310              MT_UartMaxZAppBufLen = maxLen;
    311            else
    312              MT_UartMaxZAppBufLen = 1; /* default is 1 byte */
    313          }
    314          
    315          /***************************************************************************************************
    316           * @fn      SPIMgr_AppFlowControl
    317           *
    318           * @brief
    319           *
    320           * @param   status - ready to send or not
    321           *
    322           * @return  None
    323           *
    324           ***************************************************************************************************/
    325          void MT_UartAppFlowControl ( bool status )
    326          {
    327          
    328            /* Make sure only update if needed */
    329            if (status != MT_UartZAppRxStatus )
    330            {
    331              MT_UartZAppRxStatus = status;
    332            }
    333          
    334            /* App is ready to read again, ProcessZAppData have to be triggered too */
    335            if (status == MT_UART_ZAPP_RX_READY)
    336            {
    337              MT_UartProcessZAppData (MT_UART_DEFAULT_PORT, HAL_UART_RX_TIMEOUT );
    338            }
    339          
    340          }
    341          
    342          #endif //ZAPP
    343          
    344          /***************************************************************************************************
    345          ***************************************************************************************************/

   Maximum stack usage in bytes:

     Function                 ISTACK PSTACK XSTACK
     --------                 ------ ------ ------
     MT_UartCalcFCS               2      0      0
     MT_UartInit                  2      0     29
       -> HalUARTOpen             4      0     58
     MT_UartProcessZToolData      1      0     68
       -> HalUARTRead             0      0    130
       -> Hal_UART_RxBufLen       0      0    130
       -> osal_msg_allocate       0      0    130
       -> osal_memcpy             0      0    136
       -> osal_msg_send           0      0    130
       -> osal_msg_deallocate     0      0    130
     MT_UartRegisterTaskID        2      0      0


   Segment part sizes:

     Function/Label                  Bytes
     --------------                  -----
     App_TaskID                         1
     state                              1
     CMD_Token                          2
     LEN_Token                          1
     FSC_Token                          1
     pMsg                               2
     tempDataLen                        1
     MT_UartInit                      106
     ?Subroutine0                       7
     ?Subroutine1                       8
     MT_UartRegisterTaskID             11
     MT_UartCalcFCS                    33
     MT_UartProcessZToolData          234
     ?Subroutine2                      15
     ??MT_UartInit?relay                6
     ??MT_UartRegisterTaskID?relay      6
     ??MT_UartCalcFCS?relay             6
     ??MT_UartProcessZToolData?relay    6

 
 414 bytes in segment BANKED_CODE
  24 bytes in segment BANK_RELAYS
   9 bytes in segment XDATA_Z
 
 438 bytes of CODE  memory
   9 bytes of XDATA memory

Errors: none
Warnings: none
