###############################################################################
#                                                                             #
# IAR C/C++ Compiler V8.10.3.10338/W32 for 8051         24/Jul/2017  11:34:34 #
# Copyright 2004-2011 IAR Systems AB.                                         #
#                                                                             #
#    Core               =  plain                                              #
#    Code model         =  banked                                             #
#    Data model         =  large                                              #
#    Calling convention =  xdata reentrant                                    #
#    Constant location  =  data_rom                                           #
#    Dptr setup         =  1,16                                               #
#    Source file        =  C:\Documents and Settings\new\桌面\工程文件\光敏\P #
#                          rojects\zstack\Samples\SampleApp\Source\SampleApp. #
#                          c                                                  #
#    Command line       =  -f "C:\Documents and Settings\new\桌面\工程文件\光 #
#                          敏\Projects\zstack\Samples\SampleApp\CC2530DB\..\. #
#                          .\..\Tools\CC2530DB\f8wCoord.cfg" (-DCPU32MHZ      #
#                          -DROOT=__near_func -DMAC_CFG_APP_PENDING_QUEUE=TRU #
#                          E -DMAC_CFG_TX_DATA_MAX=5 -DMAC_CFG_TX_MAX=8       #
#                          -DMAC_CFG_RX_MAX=5 -DZDO_COORDINATOR -DRTR_NWK)    #
#                          -f "C:\Documents and Settings\new\桌面\工程文件\光 #
#                          敏\Projects\zstack\Samples\SampleApp\CC2530DB\..\. #
#                          .\..\Tools\CC2530DB\f8wConfig.cfg" (-DZIGBEEPRO    #
#                          -DSECURE=0 -DZG_SECURE_DYNAMIC=0 -DREFLECTOR       #
#                          -DDEFAULT_CHANLIST=0x00400000                      #
#                          -DZDAPP_CONFIG_PAN_ID=0xFFFF                       #
#                          -DNWK_START_DELAY=100 -DEXTENDED_JOINING_RANDOM_MA #
#                          SK=0x007F -DBEACON_REQUEST_DELAY=100               #
#                          -DBEACON_REQ_DELAY_MASK=0x00FF                     #
#                          -DLINK_STATUS_JITTER_MASK=0x007F                   #
#                          -DROUTE_EXPIRY_TIME=30 -DAPSC_ACK_WAIT_DURATION_PO #
#                          LLED=3000 -DNWK_INDIRECT_MSG_TIMEOUT=7             #
#                          -DMAX_RREQ_ENTRIES=8 -DAPSC_MAX_FRAME_RETRIES=3    #
#                          -DNWK_MAX_DATA_RETRIES=2                           #
#                          -DMAX_POLL_FAILURE_RETRIES=2 -DMAX_BCAST=9         #
#                          -DAPS_MAX_GROUPS=16 -DMAX_RTG_ENTRIES=40           #
#                          -DNWK_MAX_BINDING_ENTRIES=4                        #
#                          -DMAX_BINDING_CLUSTER_IDS=4 "-DDEFAULT_KEY={0x01,  #
#                          0x03, 0x05, 0x07, 0x09, 0x0B, 0x0D, 0x0F, 0x00,    #
#                          0x02, 0x04, 0x06, 0x08, 0x0A, 0x0C, 0x0D}"         #
#                          -DMAC_MAX_FRAME_SIZE=116                           #
#                          -DZDNWKMGR_MIN_TRANSMISSIONS=20 "-DCONST=const     #
#                          __code" -DGENERIC=__generic                        #
#                          -DRFD_RCVC_ALWAYS_ON=FALSE -DPOLL_RATE=1000        #
#                          -DQUEUED_POLL_RATE=100 -DRESPONSE_POLL_RATE=100)   #
#                          -DREJOIN_POLL_RATE=440 "C:\Documents and           #
#                          Settings\new\桌面\工程文件\光敏\Projects\zstack\Sa #
#                          mples\SampleApp\Source\SampleApp.c" -D ZTOOL_P1    #
#                          -D xMT_TASK -D xMT_SYS_FUNC -D xMT_ZDO_FUNC -D     #
#                          xLCD_SUPPORTED=DEBUG -lC "C:\Documents and         #
#                          Settings\new\桌面\工程文件\光敏\Projects\zstack\Sa #
#                          mples\SampleApp\CC2530DB\CoordinatorEB\List\" -lA  #
#                          "C:\Documents and Settings\new\桌面\工程文件\光敏\ #
#                          Projects\zstack\Samples\SampleApp\CC2530DB\Coordin #
#                          atorEB\List\" --diag_suppress Pe001,Pa010 -o       #
#                          "C:\Documents and Settings\new\桌面\工程文件\光敏\ #
#                          Projects\zstack\Samples\SampleApp\CC2530DB\Coordin #
#                          atorEB\Obj\" -e --no_code_motion --debug           #
#                          --core=plain --dptr=16,1 --data_model=large        #
#                          --code_model=banked --calling_convention=xdata_ree #
#                          ntrant --place_constants=data_rom                  #
#                          --nr_virtual_regs 16 -I "C:\Documents and          #
#                          Settings\new\桌面\工程文件\光敏\Projects\zstack\Sa #
#                          mples\SampleApp\CC2530DB\" -I "C:\Documents and    #
#                          Settings\new\桌面\工程文件\光敏\Projects\zstack\Sa #
#                          mples\SampleApp\CC2530DB\..\Source\" -I            #
#                          "C:\Documents and Settings\new\桌面\工程文件\光敏\ #
#                          Projects\zstack\Samples\SampleApp\CC2530DB\..\..\. #
#                          .\ZMain\TI2530DB\" -I "C:\Documents and            #
#                          Settings\new\桌面\工程文件\光敏\Projects\zstack\Sa #
#                          mples\SampleApp\CC2530DB\..\..\..\..\..\Components #
#                          \hal\include\" -I "C:\Documents and                #
#                          Settings\new\桌面\工程文件\光敏\Projects\zstack\Sa #
#                          mples\SampleApp\CC2530DB\..\..\..\..\..\Components #
#                          \hal\target\CC2530EB\" -I "C:\Documents and        #
#                          Settings\new\桌面\工程文件\光敏\Projects\zstack\Sa #
#                          mples\SampleApp\CC2530DB\..\..\..\..\..\Components #
#                          \mac\include\" -I "C:\Documents and                #
#                          Settings\new\桌面\工程文件\光敏\Projects\zstack\Sa #
#                          mples\SampleApp\CC2530DB\..\..\..\..\..\Components #
#                          \mac\high_level\" -I "C:\Documents and             #
#                          Settings\new\桌面\工程文件\光敏\Projects\zstack\Sa #
#                          mples\SampleApp\CC2530DB\..\..\..\..\..\Components #
#                          \mac\low_level\srf04\" -I "C:\Documents and        #
#                          Settings\new\桌面\工程文件\光敏\Projects\zstack\Sa #
#                          mples\SampleApp\CC2530DB\..\..\..\..\..\Components #
#                          \mac\low_level\srf04\single_chip\" -I              #
#                          "C:\Documents and Settings\new\桌面\工程文件\光敏\ #
#                          Projects\zstack\Samples\SampleApp\CC2530DB\..\..\. #
#                          .\..\..\Components\mt\" -I "C:\Documents and       #
#                          Settings\new\桌面\工程文件\光敏\Projects\zstack\Sa #
#                          mples\SampleApp\CC2530DB\..\..\..\..\..\Components #
#                          \osal\include\" -I "C:\Documents and               #
#                          Settings\new\桌面\工程文件\光敏\Projects\zstack\Sa #
#                          mples\SampleApp\CC2530DB\..\..\..\..\..\Components #
#                          \services\saddr\" -I "C:\Documents and             #
#                          Settings\new\桌面\工程文件\光敏\Projects\zstack\Sa #
#                          mples\SampleApp\CC2530DB\..\..\..\..\..\Components #
#                          \services\sdata\" -I "C:\Documents and             #
#                          Settings\new\桌面\工程文件\光敏\Projects\zstack\Sa #
#                          mples\SampleApp\CC2530DB\..\..\..\..\..\Components #
#                          \stack\af\" -I "C:\Documents and                   #
#                          Settings\new\桌面\工程文件\光敏\Projects\zstack\Sa #
#                          mples\SampleApp\CC2530DB\..\..\..\..\..\Components #
#                          \stack\nwk\" -I "C:\Documents and                  #
#                          Settings\new\桌面\工程文件\光敏\Projects\zstack\Sa #
#                          mples\SampleApp\CC2530DB\..\..\..\..\..\Components #
#                          \stack\sapi\" -I "C:\Documents and                 #
#                          Settings\new\桌面\工程文件\光敏\Projects\zstack\Sa #
#                          mples\SampleApp\CC2530DB\..\..\..\..\..\Components #
#                          \stack\sec\" -I "C:\Documents and                  #
#                          Settings\new\桌面\工程文件\光敏\Projects\zstack\Sa #
#                          mples\SampleApp\CC2530DB\..\..\..\..\..\Components #
#                          \stack\sys\" -I "C:\Documents and                  #
#                          Settings\new\桌面\工程文件\光敏\Projects\zstack\Sa #
#                          mples\SampleApp\CC2530DB\..\..\..\..\..\Components #
#                          \stack\zdo\" -I "C:\Documents and                  #
#                          Settings\new\桌面\工程文件\光敏\Projects\zstack\Sa #
#                          mples\SampleApp\CC2530DB\..\..\..\..\..\Components #
#                          \zmac\" -I "C:\Documents and                       #
#                          Settings\new\桌面\工程文件\光敏\Projects\zstack\Sa #
#                          mples\SampleApp\CC2530DB\..\..\..\..\..\Components #
#                          \zmac\f8w\" -Ohz --require_prototypes              #
#    List file          =  C:\Documents and Settings\new\桌面\工程文件\光敏\P #
#                          rojects\zstack\Samples\SampleApp\CC2530DB\Coordina #
#                          torEB\List\SampleApp.lst                           #
#    Object file        =  C:\Documents and Settings\new\桌面\工程文件\光敏\P #
#                          rojects\zstack\Samples\SampleApp\CC2530DB\Coordina #
#                          torEB\Obj\SampleApp.r51                            #
#                                                                             #
#                                                                             #
###############################################################################

C:\Documents and Settings\new\桌面\工程文件\光敏\Projects\zstack\Samples\SampleApp\Source\SampleApp.c
      1          /**************************************************************************************************
      2            Filename:       SampleApp.c
      3            Revised:        $Date: 2009-03-18 15:56:27 -0700 (Wed, 18 Mar 2009) $
      4            Revision:       $Revision: 19453 $
      5          
      6            Description:    Sample Application (no Profile).
      7          
      8          
      9            Copyright 2007 Texas Instruments Incorporated. All rights reserved.
     10          
     11            IMPORTANT: Your use of this Software is limited to those specific rights
     12            granted under the terms of a software license agreement between the user
     13            who downloaded the software, his/her employer (which must be your employer)
     14            and Texas Instruments Incorporated (the "License").  You may not use this
     15            Software unless you agree to abide by the terms of the License. The License
     16            limits your use, and you acknowledge, that the Software may not be modified,
     17            copied or distributed unless embedded on a Texas Instruments microcontroller
     18            or used solely and exclusively in conjunction with a Texas Instruments radio
     19            frequency transceiver, which is integrated into your product.  Other than for
     20            the foregoing purpose, you may not use, reproduce, copy, prepare derivative
     21            works of, modify, distribute, perform, display or sell this Software and/or
     22            its documentation for any purpose.
     23          
     24            YOU FURTHER ACKNOWLEDGE AND AGREE THAT THE SOFTWARE AND DOCUMENTATION ARE
     25            PROVIDED AS IS?WITHOUT WARRANTY OF ANY KIND, EITHER EXPRESS OR IMPLIED,
     26            INCLUDING WITHOUT LIMITATION, ANY WARRANTY OF MERCHANTABILITY, TITLE,
     27            NON-INFRINGEMENT AND FITNESS FOR A PARTICULAR PURPOSE. IN NO EVENT SHALL
     28            TEXAS INSTRUMENTS OR ITS LICENSORS BE LIABLE OR OBLIGATED UNDER CONTRACT,
     29            NEGLIGENCE, STRICT LIABILITY, CONTRIBUTION, BREACH OF WARRANTY, OR OTHER
     30            LEGAL EQUITABLE THEORY ANY DIRECT OR INDIRECT DAMAGES OR EXPENSES
     31            INCLUDING BUT NOT LIMITED TO ANY INCIDENTAL, SPECIAL, INDIRECT, PUNITIVE
     32            OR CONSEQUENTIAL DAMAGES, LOST PROFITS OR LOST DATA, COST OF PROCUREMENT
     33            OF SUBSTITUTE GOODS, TECHNOLOGY, SERVICES, OR ANY CLAIMS BY THIRD PARTIES
     34            (INCLUDING BUT NOT LIMITED TO ANY DEFENSE THEREOF), OR OTHER SIMILAR COSTS.
     35          
     36            Should you have any questions regarding your right to use this Software,
     37            contact Texas Instruments Incorporated at www.TI.com.
     38          **************************************************************************************************/
     39          
     40          /*********************************************************************
     41            This application isn't intended to do anything useful, it is
     42            intended to be a simple example of an application's structure.
     43          
     44            This application sends it's messages either as broadcast or
     45            broadcast filtered group messages.  The other (more normal)
     46            message addressing is unicast.  Most of the other sample
     47            applications are written to support the unicast message model.
     48          
     49            Key control:
     50              SW1:  Sends a flash command to all devices in Group 1.
     51              SW2:  Adds/Removes (toggles) this device in and out
     52                    of Group 1.  This will enable and disable the
     53                    reception of the flash command.
     54          *********************************************************************/
     55          
     56          /*********************************************************************
     57           * INCLUDES
     58           */
     59          #include "OSAL.h"
     60          #include "ZGlobals.h"
     61          #include "AF.h"
     62          #include "aps_groups.h"
     63          #include "ZDApp.h"
     64          
     65          #include "SampleApp.h"
     66          #include "SampleAppHw.h"
     67          
     68          #include "OnBoard.h"

   \                                 In  segment SFR_AN, at 0xa0
   \   union <unnamed> volatile __sfr _A_P2
   \                     _A_P2:
   \   000000                DS 1

   \                                 In  segment SFR_AN, at 0xf5
   \   unsigned char volatile __sfr P2SEL
   \                     P2SEL:
   \   000000                DS 1

   \                                 In  segment SFR_AN, at 0xff
   \   unsigned char volatile __sfr P2DIR
   \                     P2DIR:
   \   000000                DS 1
     69          
     70          /* HAL */
     71          #include "hal_lcd.h"
     72          #include "hal_led.h"
     73          #include "hal_key.h"
     74          
     75          #include "MT_UART.h"  // 串口
     76          #include "MT.h"
     77          
     78          /*********************************************************************
     79           * MACROS
     80           */
     81          
     82          /*********************************************************************
     83           * CONSTANTS
     84           */
     85          
     86          /*********************************************************************
     87           * TYPEDEFS
     88           */
     89          
     90          /*********************************************************************
     91           * GLOBAL VARIABLES
     92           */
     93          
     94          // This list should be filled with Application specific Cluster IDs.

   \                                 In  segment XDATA_ROM_C, align 1
     95          const cId_t SampleApp_ClusterList[SAMPLEAPP_MAX_CLUSTERS] =
   \                     SampleApp_ClusterList:
   \   000000   0100         DW 1
   \   000002   0200         DW 2
   \   000004   0000         DW 0
     96          {
     97            SAMPLEAPP_PERIODIC_CLUSTERID,
     98            SAMPLEAPP_FLASH_CLUSTERID
     99          };
    100          

   \                                 In  segment XDATA_ROM_C, align 1
    101          const SimpleDescriptionFormat_t SampleApp_SimpleDesc =
   \                     SampleApp_SimpleDesc:
   \   000000   14           DB 20
   \   000001   080F         DW 3848
   \   000003   0100         DW 1
   \   000005   00           DB 0
   \   000006   03           DB 3
   \   000007   ....         DW SampleApp_ClusterList
   \   000009   03           DB 3
   \   00000A   ....         DW SampleApp_ClusterList
    102          {
    103            SAMPLEAPP_ENDPOINT,              //  int Endpoint;
    104            SAMPLEAPP_PROFID,                //  uint16 AppProfId[2];
    105            SAMPLEAPP_DEVICEID,              //  uint16 AppDeviceId[2];
    106            SAMPLEAPP_DEVICE_VERSION,        //  int   AppDevVer:4;
    107            SAMPLEAPP_FLAGS,                 //  int   AppFlags:4;
    108            SAMPLEAPP_MAX_CLUSTERS,          //  uint8  AppNumInClusters;
    109            (cId_t *)SampleApp_ClusterList,  //  uint8 *pAppInClusterList;
    110            SAMPLEAPP_MAX_CLUSTERS,          //  uint8  AppNumInClusters;
    111            (cId_t *)SampleApp_ClusterList   //  uint8 *pAppInClusterList;
    112          };
    113          
    114          // This is the Endpoint/Interface description.  It is defined here, but
    115          // filled-in in SampleApp_Init().  Another way to go would be to fill
    116          // in the structure here and make it a "const" (in code space).  The
    117          // way it's defined in this sample app it is define in RAM.

   \                                 In  segment XDATA_Z, align 1, keep-with-next
    118          endPointDesc_t SampleApp_epDesc;
   \                     SampleApp_epDesc:
   \   000000                DS 6
   \   000006                REQUIRE __INIT_XDATA_Z
    119          
    120          /*********************************************************************
    121           * EXTERNAL VARIABLES
    122           */
    123          
    124          /*********************************************************************
    125           * EXTERNAL FUNCTIONS
    126           */
    127          
    128          /*********************************************************************
    129           * LOCAL VARIABLES
    130           */

   \                                 In  segment XDATA_Z, align 1, keep-with-next
    131          uint8 SampleApp_TaskID;   // Task ID for internal task/event processing
   \                     SampleApp_TaskID:
   \   000000                DS 1
   \   000001                REQUIRE __INIT_XDATA_Z
    132                                    // This variable will be received when
    133                                    // SampleApp_Init() is called.

   \                                 In  segment XDATA_Z, align 1, keep-with-next
    134          devStates_t SampleApp_NwkState;
   \                     SampleApp_NwkState:
   \   000000                DS 1
   \   000001                REQUIRE __INIT_XDATA_Z
    135          

   \                                 In  segment XDATA_Z, align 1, keep-with-next
    136          uint8 SampleApp_TransID;  // This is the unique message ID (counter)
   \                     SampleApp_TransID:
   \   000000                DS 1
   \   000001                REQUIRE __INIT_XDATA_Z
    137          

   \                                 In  segment XDATA_Z, align 1, keep-with-next
    138          afAddrType_t SampleApp_Periodic_DstAddr;
   \                     SampleApp_Periodic_DstAddr:
   \   000000                DS 12
   \   00000C                REQUIRE __INIT_XDATA_Z

   \                                 In  segment XDATA_Z, align 1, keep-with-next
    139          afAddrType_t SampleApp_Flash_DstAddr;
   \                     SampleApp_Flash_DstAddr:
   \   000000                DS 12
   \   00000C                REQUIRE __INIT_XDATA_Z
    140          

   \                                 In  segment XDATA_Z, align 1, keep-with-next
    141          aps_Group_t SampleApp_Group;
   \                     SampleApp_Group:
   \   000000                DS 18
   \   000012                REQUIRE __INIT_XDATA_Z
    142          

   \                                 In  segment XDATA_Z, align 1, keep-with-next
    143          uint8 SampleAppPeriodicCounter = 0;
   \                     SampleAppPeriodicCounter:
   \   000000                DS 1
   \   000001                REQUIRE __INIT_XDATA_Z

   \                                 In  segment XDATA_Z, align 1, keep-with-next
    144          uint8 SampleAppFlashCounter = 0;
   \                     SampleAppFlashCounter:
   \   000000                DS 1
   \   000001                REQUIRE __INIT_XDATA_Z

   \                                 In  segment XDATA_Z, align 1, keep-with-next
    145          uint8 subch;
   \                     subch:
   \   000000                DS 1
   \   000001                REQUIRE __INIT_XDATA_Z

   \                                 In  segment XDATA_Z, align 1, keep-with-next
    146          unsigned long jiaoyan;
   \                     jiaoyan:
   \   000000                DS 4
   \   000004                REQUIRE __INIT_XDATA_Z

   \                                 In  segment XDATA_Z, align 1, keep-with-next
    147          unsigned char T[13]; 	//温度+提示符	
   \                     T:
   \   000000                DS 13
   \   00000D                REQUIRE __INIT_XDATA_Z

   \                                 In  segment XDATA_Z, align 1, keep-with-next
    148          bool f=0;//火警判断
   \                     f:
   \   000000                DS 1
   \   000001                REQUIRE __INIT_XDATA_Z

   \                                 In  segment XDATA_Z, align 1, keep-with-next
    149          bool s=0;//呼叫状态
   \                     `s`:
   \   000000                DS 1
   \   000001                REQUIRE __INIT_XDATA_Z

   \                                 In  segment XDATA_Z, align 1, keep-with-next
    150          bool e=0;//火警闪烁
   \                     e:
   \   000000                DS 1
   \   000001                REQUIRE __INIT_XDATA_Z

   \                                 In  segment XDATA_Z, align 1, keep-with-next
    151          bool r=0;//呼叫闪烁
   \                     r:
   \   000000                DS 1
   \   000001                REQUIRE __INIT_XDATA_Z

   \                                 In  segment XDATA_Z, align 1, keep-with-next
    152          bool z=0;//等待状态
   \                     z:
   \   000000                DS 1
   \   000001                REQUIRE __INIT_XDATA_Z

   \                                 In  segment XDATA_Z, align 1, keep-with-next
    153          uint8 w[1]={0};//车位状态
   \                     w:
   \   000000                DS 1
   \   000001                REQUIRE __INIT_XDATA_Z
    154          
    155          
    156          /*********************************************************************
    157           * LOCAL FUNCTIONS
    158           */
    159          void SampleApp_HandleKeys( uint8 shift, uint8 keys );
    160          void SampleApp_MessageMSGCB( afIncomingMSGPacket_t *pckt );
    161          void SampleApp_SendPeriodicMessage( void );
    162          void SampleApp_SendFlashMessage( uint16 flashTime );
    163          
    164          /*********************************************************************
    165           * NETWORK LAYER CALLBACKS
    166           */
    167          
    168          /*********************************************************************
    169           * PUBLIC FUNCTIONS
    170           */
    171          
    172          /*********************************************************************
    173           * @fn      SampleApp_Init
    174           *
    175           * @brief   Initialization function for the Generic App Task.
    176           *          This is called during initialization and should contain
    177           *          any application specific initialization (ie. hardware
    178           *          initialization/setup, table initialization, power up
    179           *          notificaiton ... ).
    180           *
    181           * @param   task_id - the ID assigned by OSAL.  This ID should be
    182           *                    used to send messages and set timers.
    183           *
    184           * @return  none
    185           */
    186          void SendKongkouInfor(uint8* msg);
    187          
    188          uint8 JieQu(uint8* ch,int pos,int length);
    189          
    190          
    191          

   \                                 In  segment BANKED_CODE, align 1, keep-with-next
    192           uint8 JieQu(uint8* ch,int pos,int length)  
   \                     JieQu:
    193           {  
   \   000000   C082         PUSH    DPL
   \   000002   C083         PUSH    DPH
   \   000004                ; Saved register size: 2
   \   000004                ; Auto size: 0
    194               uint8* pch=ch;  
    195           //定义一个字符指针，指向传递进来的ch地址。  
    196               //subch=(uint8*)calloc(sizeof(uint8),length+1);  
    197           //通过calloc来分配一个length长度的字符数组，返回的是字符指针。  
    198             int i;  
                        ^
Warning[Pe177]: variable "i" was declared but never referenced
    199          //只有在C99下for循环中才可以声明变量，这里写在外面，提高兼容性。  
    200               pch=pch+pos;  
    201           //是pch指针指向pos位置。  
    202               //for(i=0;i<length;i++)  
    203               //{  
    204                   subch=*(pch++);  
   \   000004   EA           MOV     A,R2
   \   000005   2C           ADD     A,R4
   \   000006   F582         MOV     DPL,A
   \   000008   EB           MOV     A,R3
   \   000009   3D           ADDC    A,R5
   \   00000A   F583         MOV     DPH,A
   \   00000C   12....       LCALL   ??Subroutine24_0 & 0xFFFF
    205           //循环遍历赋值数组。  
    206               //}  
    207               //subch[length]='\0';//加上字符串结束符。  
    208               //HalUARTWrite(0,subch,sizeof(subch));
    209               return subch;       //返回分配的字符数组地址。  
   \                     ??CrossCallReturnLabel_41:
   \   00000F   F9           MOV     R1,A
   \   000010   D083         POP     DPH
   \   000012   D082         POP     DPL
   \   000014   02....       LJMP    ?BRET
    210           } 

   \                                 In  segment BANKED_CODE, align 1, keep-with-next
   \                     ??Subroutine24_0:
   \   000000   E0           MOVX    A,@DPTR
   \   000001   90....       MOV     DPTR,#subch
   \   000004   F0           MOVX    @DPTR,A
   \   000005   22           RET
    211          
    212          
    213          

   \                                 In  segment BANKED_CODE, align 1, keep-with-next
    214          void SendKongkouInfor(uint8* msg)
   \                     SendKongkouInfor:
    215          {
   \   000000   74F6         MOV     A,#-0xa
   \   000002   12....       LCALL   ?BANKED_ENTER_XDATA
   \   000005                ; Saved register size: 10
   \   000005                ; Auto size: 12
   \   000005   74F4         MOV     A,#-0xc
   \   000007   12....       LCALL   ?ALLOC_XSTACK8
    216          uint8 len=sizeof(msg);
    217          afAddrType_t dstAddr;
    218          		  dstAddr.addrMode = Addr16Bit;		// 地址模式为16位段地址
                 		                   ^
Warning[Pe188]: enumerated type mixed with another type
   \   00000A   7408         MOV     A,#0x8
   \   00000C   12....       LCALL   ?XSTACK_DISP0_8
   \   00000F   7402         MOV     A,#0x2
   \   000011   F0           MOVX    @DPTR,A
    219          		  dstAddr.endPoint = SAMPLEAPP_ENDPOINT;
   \   000012   7409         MOV     A,#0x9
   \   000014   12....       LCALL   ?XSTACK_DISP0_8
   \   000017   12....       LCALL   ?Subroutine9 & 0xFFFF
    220          		  dstAddr.addr.shortAddr = 0xFFFF;   // 0xFFFF表示广播,0x0000为协调器
    221          		  AF_DataRequest( &dstAddr, &SampleApp_epDesc,  // 通过空口发送消息
    222                                 SAMPLEAPP_MY_CLUSTERID,
    223                                 len,  // 消息长度
    224                                 msg, // 消息内容
    225                                 &SampleApp_TransID,  // 消息编号
    226                                 AF_DISCV_ROUTE,
    227                                 AF_DEFAULT_RADIUS );	
   \                     ??CrossCallReturnLabel_11:
   \   00001A   12....       LCALL   ?PUSH_XSTACK_I_ONE
   \   00001D   75....       MOV     ?V0 + 0,#SampleApp_TransID & 0xff
   \   000020   75....       MOV     ?V0 + 1,#(SampleApp_TransID >> 8) & 0xff
   \   000023   78..         MOV     R0,#?V0 + 0
   \   000025   12....       LCALL   ?PUSH_XSTACK_I_TWO
   \   000028   8A..         MOV     ?V0 + 0,R2
   \   00002A   8B..         MOV     ?V0 + 1,R3
   \   00002C   78..         MOV     R0,#?V0 + 0
   \   00002E   12....       LCALL   ?PUSH_XSTACK_I_TWO
   \   000031   75..02       MOV     ?V0 + 0,#0x2
   \   000034   75..00       MOV     ?V0 + 1,#0x0
   \   000037   78..         MOV     R0,#?V0 + 0
   \   000039   12....       LCALL   ?PUSH_XSTACK_I_TWO
   \   00003C   75..03       MOV     ?V0 + 0,#0x3
   \   00003F   78..         MOV     R0,#?V0 + 0
   \   000041   12....       LCALL   ?PUSH_XSTACK_I_TWO
   \   000044   7920         MOV     R1,#0x20
   \   000046   7C..         MOV     R4,#SampleApp_epDesc & 0xff
   \   000048   7D..         MOV     R5,#(SampleApp_epDesc >> 8) & 0xff
   \   00004A   7409         MOV     A,#0x9
   \   00004C   12....       LCALL   ?XSTACK_DISP0_8
   \   00004F   12....       LCALL   ?Subroutine15 & 0xFFFF
   \                     ??CrossCallReturnLabel_31:
   \   000052   12....       LCALL   ?DEALLOC_XSTACK8
    228          		  //HalUARTWrite(0, "send kkou\n",10);
    229          
    230          }
   \   000055   740C         MOV     A,#0xc
   \   000057   02....       LJMP    ?Subroutine0 & 0xFFFF

   \                                 In  segment BANKED_CODE, align 1, keep-with-next
   \                     ?Subroutine15:
   \   000000   AA82         MOV     R2,DPL
   \   000002   AB83         MOV     R3,DPH
   \   000004                REQUIRE ??Subroutine21_0
   \   000004                ; // Fall through to label ??Subroutine21_0

   \                                 In  segment BANKED_CODE, align 1, keep-with-next
   \                     ??Subroutine21_0:
   \   000000   12....       LCALL   ??AF_DataRequest?relay
   \   000003   7409         MOV     A,#0x9
   \   000005   22           RET

   \                                 In  segment BANKED_CODE, align 1, keep-with-next
   \                     ?Subroutine9:
   \   000000   12....       LCALL   ?Subroutine19 & 0xFFFF
   \                     ??CrossCallReturnLabel_28:
   \   000003                ; Setup parameters for call to function AF_DataRequest
   \   000003                ; Setup parameters for call to function AF_DataRequest
   \   000003   75..1E       MOV     ?V0 + 0,#0x1e
   \   000006   78..         MOV     R0,#?V0 + 0
   \   000008   22           RET

   \                                 In  segment BANKED_CODE, align 1, keep-with-next
   \                     ?Subroutine19:
   \   000000   7414         MOV     A,#0x14
   \   000002   F0           MOVX    @DPTR,A
   \   000003   85..82       MOV     DPL,?XSP + 0
   \   000006   85..83       MOV     DPH,?XSP + 1
   \   000009   74FF         MOV     A,#-0x1
   \   00000B   F0           MOVX    @DPTR,A
   \   00000C   A3           INC     DPTR
   \   00000D   F0           MOVX    @DPTR,A
   \   00000E   22           RET

   \                                 In  segment BANKED_CODE, align 1, keep-with-next
   \                     ?Subroutine0:
   \   000000   12....       LCALL   ?DEALLOC_XSTACK8
   \   000003                REQUIRE ??Subroutine28_0
   \   000003                ; // Fall through to label ??Subroutine28_0

   \                                 In  segment BANKED_CODE, align 1, keep-with-next
   \                     ??Subroutine28_0:
   \   000000   7F02         MOV     R7,#0x2
   \   000002   02....       LJMP    ?BANKED_LEAVE_XDATA
    231          

   \                                 In  segment BANKED_CODE, align 1, keep-with-next
    232          void SampleApp_Init( uint8 task_id )
   \                     SampleApp_Init:
    233          {
   \   000000   74F5         MOV     A,#-0xb
   \   000002   12....       LCALL   ?BANKED_ENTER_XDATA
   \   000005                ; Saved register size: 11
   \   000005                ; Auto size: 0
   \   000005   E9           MOV     A,R1
    234            SampleApp_TaskID = task_id;
   \   000006   90....       MOV     DPTR,#SampleApp_TaskID
   \   000009   F0           MOVX    @DPTR,A
    235            SampleApp_NwkState = DEV_INIT;
   \   00000A   90....       MOV     DPTR,#SampleApp_NwkState
   \   00000D   7401         MOV     A,#0x1
   \   00000F   F0           MOVX    @DPTR,A
    236            SampleApp_TransID = 0;
   \   000010   90....       MOV     DPTR,#SampleApp_TransID
   \   000013   E4           CLR     A
   \   000014   F0           MOVX    @DPTR,A
    237          
    238            MT_UartInit();  // 串口初始化
   \   000015                ; Setup parameters for call to function MT_UartInit
   \   000015   12....       LCALL   ??MT_UartInit?relay
    239            osal_set_event(SampleApp_TaskID, MY_SEND_UART); //设置事件
   \   000018                ; Setup parameters for call to function osal_set_event
   \   000018   7A02         MOV     R2,#0x2
   \   00001A   12....       LCALL   ?Subroutine4 & 0xFFFF
    240            osal_set_event(SampleApp_TaskID, MY_SEND2_UART); //设置事件
   \                     ??CrossCallReturnLabel_2:
   \   00001D                ; Setup parameters for call to function osal_set_event
   \   00001D   7A04         MOV     R2,#0x4
   \   00001F   12....       LCALL   ?Subroutine4 & 0xFFFF
    241            osal_set_event(SampleApp_TaskID, MY_SEND3_UART); //设置事件
   \                     ??CrossCallReturnLabel_3:
   \   000022                ; Setup parameters for call to function osal_set_event
   \   000022   7A08         MOV     R2,#0x8
   \   000024   12....       LCALL   ?Subroutine4 & 0xFFFF
    242            MT_UartRegisterTaskID(SampleApp_TaskID);  // 注册，有串口事件通知我
   \                     ??CrossCallReturnLabel_4:
   \   000027                ; Setup parameters for call to function MT_UartRegisterTaskID
   \   000027   90....       MOV     DPTR,#SampleApp_TaskID
   \   00002A   E0           MOVX    A,@DPTR
   \   00002B   F9           MOV     R1,A
   \   00002C   12....       LCALL   ??MT_UartRegisterTaskID?relay
    243            
    244           //初始化光敏模块
    245            P2SEL &= ~0X01;     //设置P20为普通IO口  
   \   00002F   53F5FE       ANL     0xf5,#0xfe
    246            P2DIR &= ~0X01;    // 在P20口，设置为输入模式 
   \   000032   53FFFE       ANL     0xff,#0xfe
    247          
    248            // Device hardware initialization can be added here or in main() (Zmain.c).
    249            // If the hardware is application specific - add it here.
    250            // If the hardware is other parts of the device add it in main().
    251          
    252           #if defined ( BUILD_ALL_DEVICES )
    253            // The "Demo" target is setup to have BUILD_ALL_DEVICES and HOLD_AUTO_START
    254            // We are looking at a jumper (defined in SampleAppHw.c) to be jumpered
    255            // together - if they are - we will start up a coordinator. Otherwise,
    256            // the device will start as a router.
    257            if ( readCoordinatorJumper() )
    258              zgDeviceLogicalType = ZG_DEVICETYPE_COORDINATOR;
    259            else
    260              zgDeviceLogicalType = ZG_DEVICETYPE_ROUTER;
    261          #endif // BUILD_ALL_DEVICES
    262          
    263          #if defined ( HOLD_AUTO_START )
    264            // HOLD_AUTO_START is a compile option that will surpress ZDApp
    265            //  from starting the device and wait for the application to
    266            //  start the device.
    267            ZDOInitDevice(0);
    268          #endif
    269          
    270            // Setup for the periodic message's destination address
    271            // Broadcast to everyone
    272            SampleApp_Periodic_DstAddr.addrMode = (afAddrMode_t)AddrBroadcast;
   \   000035   90....       MOV     DPTR,#SampleApp_Periodic_DstAddr + 8
   \   000038   740F         MOV     A,#0xf
   \   00003A   F0           MOVX    @DPTR,A
    273            SampleApp_Periodic_DstAddr.endPoint = SAMPLEAPP_ENDPOINT;
   \   00003B   A3           INC     DPTR
   \   00003C   7414         MOV     A,#0x14
   \   00003E   F0           MOVX    @DPTR,A
    274            SampleApp_Periodic_DstAddr.addr.shortAddr = 0xFFFF;
   \   00003F   90....       MOV     DPTR,#SampleApp_Periodic_DstAddr
   \   000042   74FF         MOV     A,#-0x1
   \   000044   F0           MOVX    @DPTR,A
   \   000045   A3           INC     DPTR
   \   000046   F0           MOVX    @DPTR,A
    275          
    276            // Setup for the flash command's destination address - Group 1
    277            SampleApp_Flash_DstAddr.addrMode = (afAddrMode_t)afAddrGroup;
   \   000047   90....       MOV     DPTR,#SampleApp_Flash_DstAddr + 8
   \   00004A   7401         MOV     A,#0x1
   \   00004C   F0           MOVX    @DPTR,A
    278            SampleApp_Flash_DstAddr.endPoint = SAMPLEAPP_ENDPOINT;
   \   00004D   A3           INC     DPTR
   \   00004E   7414         MOV     A,#0x14
   \   000050   F0           MOVX    @DPTR,A
    279            SampleApp_Flash_DstAddr.addr.shortAddr = SAMPLEAPP_FLASH_GROUP;
   \   000051   90....       MOV     DPTR,#SampleApp_Flash_DstAddr
   \   000054   7401         MOV     A,#0x1
   \   000056   F0           MOVX    @DPTR,A
   \   000057   A3           INC     DPTR
   \   000058   E4           CLR     A
   \   000059   F0           MOVX    @DPTR,A
    280          
    281            // Fill out the endpoint description.
    282            SampleApp_epDesc.endPoint = SAMPLEAPP_ENDPOINT;
   \   00005A   90....       MOV     DPTR,#SampleApp_epDesc
   \   00005D   7414         MOV     A,#0x14
   \   00005F   F0           MOVX    @DPTR,A
    283            SampleApp_epDesc.task_id = &SampleApp_TaskID;
   \   000060   A3           INC     DPTR
   \   000061   74..         MOV     A,#SampleApp_TaskID & 0xff
   \   000063   F0           MOVX    @DPTR,A
   \   000064   A3           INC     DPTR
   \   000065   74..         MOV     A,#(SampleApp_TaskID >> 8) & 0xff
   \   000067   F0           MOVX    @DPTR,A
    284            SampleApp_epDesc.simpleDesc
    285                      = (SimpleDescriptionFormat_t *)&SampleApp_SimpleDesc;
   \   000068   A3           INC     DPTR
   \   000069   74..         MOV     A,#SampleApp_SimpleDesc & 0xff
   \   00006B   F0           MOVX    @DPTR,A
   \   00006C   A3           INC     DPTR
   \   00006D   74..         MOV     A,#(SampleApp_SimpleDesc >> 8) & 0xff
   \   00006F   F0           MOVX    @DPTR,A
    286            SampleApp_epDesc.latencyReq = noLatencyReqs;
   \   000070   A3           INC     DPTR
   \   000071   E4           CLR     A
   \   000072   F0           MOVX    @DPTR,A
    287          
    288            // Register the endpoint description with the AF
    289            afRegister( &SampleApp_epDesc );
   \   000073                ; Setup parameters for call to function afRegister
   \   000073   7A..         MOV     R2,#SampleApp_epDesc & 0xff
   \   000075   7B..         MOV     R3,#(SampleApp_epDesc >> 8) & 0xff
   \   000077   12....       LCALL   ??afRegister?relay
    290          
    291            // Register for all key events - This app will handle all key events
    292            RegisterForKeys( SampleApp_TaskID );
   \   00007A                ; Setup parameters for call to function RegisterForKeys
   \   00007A   90....       MOV     DPTR,#SampleApp_TaskID
   \   00007D   E0           MOVX    A,@DPTR
   \   00007E   F9           MOV     R1,A
   \   00007F   12....       LCALL   ??RegisterForKeys?relay
    293          
    294            // By default, all devices start out in Group 1
    295            SampleApp_Group.ID = 0x0001;
   \   000082   90....       MOV     DPTR,#SampleApp_Group
   \   000085   7401         MOV     A,#0x1
   \   000087   F0           MOVX    @DPTR,A
   \   000088   A3           INC     DPTR
   \   000089   E4           CLR     A
   \   00008A   F0           MOVX    @DPTR,A
    296            osal_memcpy( SampleApp_Group.name, "Group 1", 7  );
   \   00008B                ; Setup parameters for call to function osal_memcpy
   \   00008B   75....       MOV     ?V0 + 0,#`?<Constant "Group 1">` & 0xff
   \   00008E   75....       MOV     ?V0 + 1,#(`?<Constant "Group 1">` >> 8) & 0xff
   \   000091   F5..         MOV     ?V0 + 2,A
   \   000093   78..         MOV     R0,#?V0 + 0
   \   000095   12....       LCALL   ?PUSH_XSTACK_I_THREE
   \   000098   7C07         MOV     R4,#0x7
   \   00009A   7D00         MOV     R5,#0x0
   \   00009C   7A..         MOV     R2,#(SampleApp_Group + 2) & 0xff
   \   00009E   7B..         MOV     R3,#((SampleApp_Group + 2) >> 8) & 0xff
   \   0000A0   12....       LCALL   ??osal_memcpy?relay
   \   0000A3   7403         MOV     A,#0x3
   \   0000A5   12....       LCALL   ?DEALLOC_XSTACK8
    297            aps_AddGroup( SAMPLEAPP_ENDPOINT, &SampleApp_Group );
   \   0000A8                ; Setup parameters for call to function aps_AddGroup
   \   0000A8   7A..         MOV     R2,#SampleApp_Group & 0xff
   \   0000AA   7B..         MOV     R3,#(SampleApp_Group >> 8) & 0xff
   \   0000AC   7914         MOV     R1,#0x14
   \   0000AE   12....       LCALL   ??aps_AddGroup?relay
    298          
    299          #if defined ( LCD_SUPPORTED )
    300            HalLcdWriteString( "SampleApp", HAL_LCD_LINE_1 );
    301          #endif
    302          }
   \   0000B1   7F03         MOV     R7,#0x3
   \   0000B3   02....       LJMP    ?BANKED_LEAVE_XDATA
   \   0000B6                REQUIRE P2SEL
   \   0000B6                REQUIRE P2DIR

   \                                 In  segment BANKED_CODE, align 1, keep-with-next
   \                     ?Subroutine4:
   \   000000   7B00         MOV     R3,#0x0
   \   000002   90....       MOV     DPTR,#SampleApp_TaskID
   \   000005   E0           MOVX    A,@DPTR
   \   000006   F9           MOV     R1,A
   \   000007   12....       LCALL   ??osal_set_event?relay
   \   00000A   22           RET
    303          
    304          /*********************************************************************
    305           * @fn      SampleApp_ProcessEvent
    306           *
    307           * @brief   Generic Application Task event processor.  This function
    308           *          is called to process all events for the task.  Events
    309           *          include timers, messages and any other user defined events.
    310           *
    311           * @param   task_id  - The OSAL assigned task ID.
    312           * @param   events - events to process.  This is a bit map and can
    313           *                   contain more than one event.
    314           *
    315           * @return  none
    316           */

   \                                 In  segment BANKED_CODE, align 1, keep-with-next
    317          uint16 SampleApp_ProcessEvent( uint8 task_id, uint16 events )
   \                     SampleApp_ProcessEvent:
    318          {
   \   000000   74EB         MOV     A,#-0x15
   \   000002   12....       LCALL   ?BANKED_ENTER_XDATA
   \   000005                ; Saved register size: 21
   \   000005                ; Auto size: 12
   \   000005   74F4         MOV     A,#-0xc
   \   000007   12....       LCALL   ?ALLOC_XSTACK8
   \   00000A   EA           MOV     A,R2
   \   00000B   FE           MOV     R6,A
   \   00000C   EB           MOV     A,R3
   \   00000D   FF           MOV     R7,A
    319            afIncomingMSGPacket_t *MSGpkt;
    320            (void)task_id;  // Intentionally unreferenced parameter
    321          
    322            if ( events & SYS_EVENT_MSG )
   \   00000E   5480         ANL     A,#0x80
   \   000010   7003         JNZ     $+5
   \   000012   02....       LJMP    ??SampleApp_ProcessEvent_0 & 0xFFFF
    323            {
    324              MSGpkt = (afIncomingMSGPacket_t *)osal_msg_receive( SampleApp_TaskID );
   \   000015                ; Setup parameters for call to function osal_msg_receive
   \   000015   90....       MOV     DPTR,#SampleApp_TaskID
   \   000018   E0           MOVX    A,@DPTR
   \   000019   F9           MOV     R1,A
   \   00001A   12....       LCALL   ??osal_msg_receive?relay
   \   00001D   8A..         MOV     ?V0 + 0,R2
   \   00001F   8B..         MOV     ?V0 + 1,R3
    325              while ( MSGpkt )
   \   000021   EA           MOV     A,R2
   \   000022   45..         ORL     A,?V0 + 1
   \   000024   7003         JNZ     $+5
   \   000026   02....       LJMP    ??SampleApp_ProcessEvent_0 & 0xFFFF
    326              {
    327                switch ( MSGpkt->hdr.event )
   \   000029   8A82         MOV     DPL,R2
   \   00002B   8B83         MOV     DPH,R3
   \   00002D   E0           MOVX    A,@DPTR
   \   00002E   14           DEC     A
   \   00002F   604A         JZ      ??SampleApp_ProcessEvent_1
   \   000031   24E7         ADD     A,#-0x19
   \   000033   601F         JZ      ??SampleApp_ProcessEvent_2
   \   000035   245A         ADD     A,#0x5a
   \   000037   6007         JZ      ??SampleApp_ProcessEvent_3
   \   000039   24EF         ADD     A,#-0x11
   \   00003B   601D         JZ      ??SampleApp_ProcessEvent_4
   \   00003D   02....       LJMP    ??SampleApp_ProcessEvent_5 & 0xFFFF
    328                {
    329                  // Received when a key is pressed
    330                  case KEY_CHANGE:
    331                    //HalUARTWrite(0,"1\n",2);  // 发送串口消息
    332                    SampleApp_HandleKeys( ((keyChange_t *)MSGpkt)->state, ((keyChange_t *)MSGpkt)->keys );
   \                     ??SampleApp_ProcessEvent_3:
   \   000040                ; Setup parameters for call to function SampleApp_HandleKeys
   \   000040   A3           INC     DPTR
   \   000041   A3           INC     DPTR
   \   000042   A3           INC     DPTR
   \   000043   E0           MOVX    A,@DPTR
   \   000044   FA           MOV     R2,A
   \   000045   85..82       MOV     DPL,?V0 + 0
   \   000048   8B83         MOV     DPH,R3
   \   00004A   A3           INC     DPTR
   \   00004B   A3           INC     DPTR
   \   00004C   E0           MOVX    A,@DPTR
   \   00004D   F9           MOV     R1,A
   \   00004E   12....       LCALL   ??SampleApp_HandleKeys?relay
    333                    //open_led_1();
    334          		  break;
   \   000051   02....       LJMP    ??SampleApp_ProcessEvent_5 & 0xFFFF
    335          
    336                  // Received when a messages is received (OTA) for this endpoint
    337                  case AF_INCOMING_MSG_CMD:   //接收到空口发过来的消息
    338                    SampleApp_MessageMSGCB( MSGpkt );
   \                     ??SampleApp_ProcessEvent_2:
   \   000054                ; Setup parameters for call to function SampleApp_MessageMSGCB
   \   000054   12....       LCALL   ??SampleApp_MessageMSGCB?relay
    339                    break;
   \   000057   02....       LJMP    ??SampleApp_ProcessEvent_5 & 0xFFFF
    340          
    341                  // Received whenever the device changes state in the network
    342                  case ZDO_STATE_CHANGE:
    343                    SampleApp_NwkState = (devStates_t)(MSGpkt->hdr.status);
   \                     ??SampleApp_ProcessEvent_4:
   \   00005A   A3           INC     DPTR
   \   00005B   E0           MOVX    A,@DPTR
   \   00005C   90....       MOV     DPTR,#SampleApp_NwkState
   \   00005F   F0           MOVX    @DPTR,A
    344                    if ( (SampleApp_NwkState == DEV_ZB_COORD)
    345                        || (SampleApp_NwkState == DEV_ROUTER)
    346                        || (SampleApp_NwkState == DEV_END_DEVICE) )
   \   000060   6409         XRL     A,#0x9
   \   000062   600D         JZ      ??SampleApp_ProcessEvent_6
   \   000064   E0           MOVX    A,@DPTR
   \   000065   6407         XRL     A,#0x7
   \   000067   6008         JZ      ??SampleApp_ProcessEvent_6
   \   000069   E0           MOVX    A,@DPTR
   \   00006A   6406         XRL     A,#0x6
   \   00006C   6003         JZ      $+5
   \   00006E   02....       LJMP    ??SampleApp_ProcessEvent_5 & 0xFFFF
    347                    {
    348                      // Start sending the periodic message in a regular interval.
    349                      osal_start_timerEx( SampleApp_TaskID,
    350                                        SAMPLEAPP_SEND_PERIODIC_MSG_EVT,
    351                                        SAMPLEAPP_SEND_PERIODIC_MSG_TIMEOUT );
   \                     ??SampleApp_ProcessEvent_6:
   \   000071                ; Setup parameters for call to function osal_start_timerEx
   \   000071   7C88         MOV     R4,#-0x78
   \   000073   7D13         MOV     R5,#0x13
   \   000075   12....       LCALL   ?Subroutine2 & 0xFFFF
    352                    }
   \                     ??CrossCallReturnLabel_36:
   \   000078   02....       LJMP    ??SampleApp_ProcessEvent_5 & 0xFFFF
   \                     ??SampleApp_ProcessEvent_1:
   \   00007B   A3           INC     DPTR
   \   00007C   A3           INC     DPTR
   \   00007D   12....       LCALL   ?Subroutine3 & 0xFFFF
   \                     ??CrossCallReturnLabel_0:
   \   000080   E0           MOVX    A,@DPTR
   \   000081   F5..         MOV     ?V0 + 4,A
    353                    else
    354                    {
    355                      // Device is no longer in the network
    356                    }
    357                    break;
    358          		case CMD_SERIAL_MSG: // 串口收到消息#include "MT.h"
    359          		  uint8 len = ((mtOSALSerialData_t*)MSGpkt)->msg[0];  //串口消息长度
                 		  ^
Warning[Pe1072]: a declaration cannot have a label
    360          		  uint8* msg = &(((mtOSALSerialData_t*)MSGpkt)->msg[1]);//串口消息内容
   \   000083   A3           INC     DPTR
   \   000084   8582..       MOV     ?V0 + 2,DPL
   \   000087   8583..       MOV     ?V0 + 3,DPH
    361          		  afAddrType_t dstAddr;
    362          		  dstAddr.addrMode = Addr16Bit;		// 地址模式为16位段地址
                 		                   ^
Warning[Pe188]: enumerated type mixed with another type

        switch ( MSGpkt->hdr.event )
        ^
"C:\Documents and Settings\new\桌面\工程文件\光敏\Projects\zstack\Samples\SampleApp\Source\SampleApp.c",327  Warning[Pe546]: 
          transfer of control bypasses initialization of:
            variable "len" (declared at line 359 of "C:\Documents and
                      Settings\new\桌面\工程文件\光敏\Projects\zstack\Samples\S
                      ampleApp\Source\SampleApp.c")
            variable "msg" (declared at line 360 of "C:\Documents and
                      Settings\new\桌面\工程文件\光敏\Projects\zstack\Samples\S
                      ampleApp\Source\SampleApp.c")
            variable "ch" (declared at line 372 of "C:\Documents and
                      Settings\new\桌面\工程文件\光敏\Projects\zstack\Samples\S
                      ampleApp\Source\SampleApp.c")
   \   00008A   7408         MOV     A,#0x8
   \   00008C   12....       LCALL   ?XSTACK_DISP0_8
   \   00008F   7402         MOV     A,#0x2
   \   000091   F0           MOVX    @DPTR,A
    363          		  dstAddr.endPoint = SAMPLEAPP_ENDPOINT;
   \   000092   7409         MOV     A,#0x9
   \   000094   12....       LCALL   ?XSTACK_DISP0_8
   \   000097   12....       LCALL   ?Subroutine19 & 0xFFFF
    364          		  dstAddr.addr.shortAddr = 0xFFFF;   // 0xFFFF表示广播,0x0000为协调器
    365          		  AF_DataRequest( &dstAddr, &SampleApp_epDesc,  // 通过空口发送消息
    366                                 SAMPLEAPP_MY_CLUSTERID,
    367                                 len,  // 消息长度
    368                                 (uint8*)msg, // 消息内容
    369                                 &SampleApp_TransID,  // 消息编号
    370                                 AF_DISCV_ROUTE,
    371                                 AF_DEFAULT_RADIUS );
   \                     ??CrossCallReturnLabel_27:
   \   00009A                ; Setup parameters for call to function AF_DataRequest
   \   00009A   75..1E       MOV     ?V0 + 5,#0x1e
   \   00009D   78..         MOV     R0,#?V0 + 5
   \   00009F   12....       LCALL   ?PUSH_XSTACK_I_ONE
   \   0000A2   75....       MOV     ?V0 + 6,#SampleApp_TransID & 0xff
   \   0000A5   75....       MOV     ?V0 + 7,#(SampleApp_TransID >> 8) & 0xff
   \   0000A8   78..         MOV     R0,#?V0 + 6
   \   0000AA   12....       LCALL   ?PUSH_XSTACK_I_TWO
   \   0000AD   78..         MOV     R0,#?V0 + 2
   \   0000AF   12....       LCALL   ?PUSH_XSTACK_I_TWO
   \   0000B2   75..00       MOV     ?V0 + 5,#0x0
   \   0000B5   78..         MOV     R0,#?V0 + 4
   \   0000B7   12....       LCALL   ?PUSH_XSTACK_I_TWO
   \   0000BA   75..03       MOV     ?V0 + 4,#0x3
   \   0000BD   78..         MOV     R0,#?V0 + 4
   \   0000BF   12....       LCALL   ?PUSH_XSTACK_I_TWO
   \   0000C2   7920         MOV     R1,#0x20
   \   0000C4   7C..         MOV     R4,#SampleApp_epDesc & 0xff
   \   0000C6   7D..         MOV     R5,#(SampleApp_epDesc >> 8) & 0xff
   \   0000C8   7409         MOV     A,#0x9
   \   0000CA   12....       LCALL   ?XSTACK_DISP0_8
   \   0000CD   12....       LCALL   ?Subroutine15 & 0xFFFF
   \                     ??CrossCallReturnLabel_32:
   \   0000D0   12....       LCALL   ?DEALLOC_XSTACK8
    372          		uint8* ch=msg;
    373                  JieQu(ch,3,1);
   \   0000D3   12....       LCALL   ?Subroutine1 & 0xFFFF
    374          		if(subch=='3')JieQu(ch,6,1);
   \                     ??CrossCallReturnLabel_46:
   \   0000D6   6433         XRL     A,#0x33
   \   0000D8   700C         JNZ     ??CrossCallReturnLabel_42
   \   0000DA   85..82       MOV     DPL,?V0 + 2
   \   0000DD   85..83       MOV     DPH,?V0 + 3
   \   0000E0   A3           INC     DPTR
   \   0000E1   A3           INC     DPTR
   \   0000E2   A3           INC     DPTR
   \   0000E3   12....       LCALL   ??Subroutine23_0 & 0xFFFF
    375          		if(subch=='1')f=1;
   \                     ??CrossCallReturnLabel_42:
   \   0000E6   E0           MOVX    A,@DPTR
   \   0000E7   6431         XRL     A,#0x31
   \   0000E9   90....       MOV     DPTR,#f
   \   0000EC   7004         JNZ     ??SampleApp_ProcessEvent_7
   \   0000EE   7401         MOV     A,#0x1
   \   0000F0   8001         SJMP    ??SampleApp_ProcessEvent_8
    376          		else f=0;
   \                     ??SampleApp_ProcessEvent_7:
   \   0000F2   E4           CLR     A
   \                     ??SampleApp_ProcessEvent_8:
   \   0000F3   F0           MOVX    @DPTR,A
    377          		JieQu(ch,3,1);
   \   0000F4   12....       LCALL   ?Subroutine1 & 0xFFFF
    378          		if(subch=='4')s=0;
   \                     ??CrossCallReturnLabel_47:
   \   0000F7   6434         XRL     A,#0x34
   \   0000F9   701D         JNZ     ??SampleApp_ProcessEvent_9
   \   0000FB   90....       MOV     DPTR,#`s`
   \   0000FE   E4           CLR     A
   \   0000FF   F0           MOVX    @DPTR,A
    379          		else if (subch=='2'){
    380                  w[0]=1;
    381          		
    382          		  
    383          		  break;
    384                  default:
    385                    break;
    386                }
    387          
    388                // Release the memory
    389                osal_msg_deallocate( (uint8 *)MSGpkt );
   \                     ??SampleApp_ProcessEvent_10:
   \   000100                ; Setup parameters for call to function osal_msg_deallocate
   \   000100   AA..         MOV     R2,?V0 + 0
   \   000102   AB..         MOV     R3,?V0 + 1
   \   000104   12....       LCALL   ??osal_msg_deallocate?relay
    390          
    391                // Next - if one is available
    392                MSGpkt = (afIncomingMSGPacket_t *)osal_msg_receive( SampleApp_TaskID );
   \   000107                ; Setup parameters for call to function osal_msg_receive
   \   000107   90....       MOV     DPTR,#SampleApp_TaskID
   \   00010A   E0           MOVX    A,@DPTR
   \   00010B   F9           MOV     R1,A
   \   00010C   12....       LCALL   ??osal_msg_receive?relay
    393              }
    394          
    395              // return unprocessed events
    396              return (events ^ SYS_EVENT_MSG);
   \                     ??SampleApp_ProcessEvent_5:
   \   00010F   EE           MOV     A,R6
   \   000110   FA           MOV     R2,A
   \   000111   EF           MOV     A,R7
   \   000112   6480         XRL     A,#0x80
   \                     ??SampleApp_ProcessEvent_11:
   \   000114   FB           MOV     R3,A
   \   000115   02....       LJMP    ??SampleApp_ProcessEvent_12 & 0xFFFF
   \                     ??SampleApp_ProcessEvent_9:
   \   000118   E0           MOVX    A,@DPTR
   \   000119   6432         XRL     A,#0x32
   \   00011B   70E3         JNZ     ??SampleApp_ProcessEvent_10
   \   00011D   90....       MOV     DPTR,#w
   \   000120   7401         MOV     A,#0x1
   \   000122   F0           MOVX    @DPTR,A
   \   000123   80EA         SJMP    ??SampleApp_ProcessEvent_5
    397            }
    398            	}
    399          
    400            // Send a message out - This event is generated by a timer
    401            //  (setup in SampleApp_Init()).
    402            if ( events & SAMPLEAPP_SEND_PERIODIC_MSG_EVT )
   \                     ??SampleApp_ProcessEvent_0:
   \   000125   EE           MOV     A,R6
   \   000126   A2E0         MOV     C,0xE0 /* A   */.0
   \   000128   5018         JNC     ??SampleApp_ProcessEvent_13
    403            {
    404              // Send the periodic message
    405              SampleApp_SendPeriodicMessage();
   \   00012A                ; Setup parameters for call to function SampleApp_SendPeriodicMessage
   \   00012A   12....       LCALL   ??SampleApp_SendPeriodicMessage?relay
    406          
    407              // Setup to send message again in normal period (+ a little jitter)
    408              osal_start_timerEx( SampleApp_TaskID, SAMPLEAPP_SEND_PERIODIC_MSG_EVT,
    409                  (SAMPLEAPP_SEND_PERIODIC_MSG_TIMEOUT + (osal_rand() & 0x00FF)) );
   \   00012D                ; Setup parameters for call to function osal_rand
   \   00012D   12....       LCALL   ??osal_rand?relay
   \   000130                ; Setup parameters for call to function osal_start_timerEx
   \   000130   EA           MOV     A,R2
   \   000131   2488         ADD     A,#-0x78
   \   000133   FC           MOV     R4,A
   \   000134   E4           CLR     A
   \   000135   3413         ADDC    A,#0x13
   \   000137   FD           MOV     R5,A
   \   000138   12....       LCALL   ?Subroutine2 & 0xFFFF
    410          
    411              // return unprocessed events
    412              return (events ^ SAMPLEAPP_SEND_PERIODIC_MSG_EVT);
   \                     ??CrossCallReturnLabel_37:
   \   00013B   EE           MOV     A,R6
   \   00013C   6401         XRL     A,#0x1
   \                     ??SampleApp_ProcessEvent_14:
   \   00013E   FA           MOV     R2,A
   \   00013F   EF           MOV     A,R7
   \   000140   80D2         SJMP    ??SampleApp_ProcessEvent_11
    413            }
    414          
    415              if (events & MY_SEND_UART)  // 串口发送消息的事件
   \                     ??SampleApp_ProcessEvent_13:
   \   000142   5402         ANL     A,#0x2
   \   000144   7003         JNZ     $+5
   \   000146   02....       LJMP    ??SampleApp_ProcessEvent_15 & 0xFFFF
    416            	{
    417            	//读取光敏电阻状态，暗时点亮LED
    418                if(P2_0==0)
   \   000149   A2A0         MOV     C,0xa0.0
   \   00014B   5003         JNC     $+5
   \   00014D   02....       LJMP    ??SampleApp_ProcessEvent_16 & 0xFFFF
    419                  {
    420                  s=0;
   \   000150   90....       MOV     DPTR,#`s`
   \   000153   E4           CLR     A
   \   000154   F0           MOVX    @DPTR,A
    421          		T[0]='*';
   \   000155   12....       LCALL   ?Subroutine7 & 0xFFFF
    422            		T[1]='1';
    423            		T[2]='3';
    424            		T[3]='1';
    425            		T[4]='0';
    426           		T[5]='0';
    427            		T[6]='0';
    428            		T[7]='1';
    429            		T[8]='0';
   \                     ??CrossCallReturnLabel_9:
   \   000158   14           DEC     A
   \   000159   12....       LCALL   ?Subroutine12 & 0xFFFF
    430            		unsigned char  len = 16;
    431          		unsigned long  temp = 0; 
   \                     ??CrossCallReturnLabel_15:
   \   00015C   12....       LCALL   ?L_MOV_X
    432          		unsigned char  i;
    433          		unsigned char  *ptr=T;
   \   00015F   7C..         MOV     R4,#T & 0xff
   \   000161   7D..         MOV     R5,#(T >> 8) & 0xff
   \   000163   8049         SJMP    ??SampleApp_ProcessEvent_17
    434          
    435          		while(len--) 
    436          		{
    437          		for(i=0x80;i!=0;i=i>>1)
   \                     ??SampleApp_ProcessEvent_18:
   \   000165   7980         MOV     R1,#-0x80
    438          		 {
    439          			  temp = temp * 2;
   \                     ??SampleApp_ProcessEvent_19:
   \   000167   7401         MOV     A,#0x1
   \   000169   78..         MOV     R0,#?V0 + 0
   \   00016B   12....       LCALL   ?L_SHL
    440          			  if((temp & 0x10000) != 0)
   \   00016E   85....       MOV     ?V0 + 4,?V0 + 0
   \   000171   85....       MOV     ?V0 + 5,?V0 + 1
   \   000174   85....       MOV     ?V0 + 6,?V0 + 2
   \   000177   85....       MOV     ?V0 + 7,?V0 + 3
   \   00017A   90....       MOV     DPTR,#__Constant_10000
   \   00017D   78..         MOV     R0,#?V0 + 4
   \   00017F   12....       LCALL   ?L_AND_X
   \   000182   12....       LCALL   ?Subroutine14 & 0xFFFF
   \                     ??CrossCallReturnLabel_19:
   \   000185   6008         JZ      ??SampleApp_ProcessEvent_20
    441          			  temp = temp ^ 0x11021;
   \   000187   90....       MOV     DPTR,#__Constant_11021
   \   00018A   78..         MOV     R0,#?V0 + 0
   \   00018C   12....       LCALL   ?L_XOR_X
    442          			  if((*ptr & i) != 0)
   \                     ??SampleApp_ProcessEvent_20:
   \   00018F   8C82         MOV     DPL,R4
   \   000191   8D83         MOV     DPH,R5
   \   000193   E0           MOVX    A,@DPTR
   \   000194   59           ANL     A,R1
   \   000195   6008         JZ      ??SampleApp_ProcessEvent_21
    443          			  temp = temp ^ (0x10000 ^ 0x11021);
   \   000197   90....       MOV     DPTR,#__Constant_1021
   \   00019A   78..         MOV     R0,#?V0 + 0
   \   00019C   12....       LCALL   ?L_XOR_X
    444          		 }
   \                     ??SampleApp_ProcessEvent_21:
   \   00019F   E9           MOV     A,R1
   \   0001A0   C3           CLR     C
   \   0001A1   13           RRC     A
   \   0001A2   F9           MOV     R1,A
   \   0001A3   70C2         JNZ     ??SampleApp_ProcessEvent_19
    445          	
    446          		 ptr++;
   \   0001A5   8C82         MOV     DPL,R4
   \   0001A7   8D83         MOV     DPH,R5
   \   0001A9   A3           INC     DPTR
   \   0001AA   AC82         MOV     R4,DPL
   \   0001AC   AD83         MOV     R5,DPH
    447          		}
   \                     ??SampleApp_ProcessEvent_17:
   \   0001AE   8A..         MOV     ?V0 + 12,R2
   \   0001B0   74FF         MOV     A,#-0x1
   \   0001B2   25..         ADD     A,?V0 + 12
   \   0001B4   1A           DEC     R2
   \   0001B5   04           INC     A
   \   0001B6   70AD         JNZ     ??SampleApp_ProcessEvent_18
    448          		jiaoyan= temp%10;
   \   0001B8   90....       MOV     DPTR,#__Constant_a
   \   0001BB   78..         MOV     R0,#?V0 + 4
   \   0001BD   12....       LCALL   ?L_MOV_X
   \   0001C0   78..         MOV     R0,#?V0 + 0
   \   0001C2   79..         MOV     R1,#?V0 + 4
   \   0001C4   12....       LCALL   ?UL_DIV_MOD
   \   0001C7   90....       MOV     DPTR,#jiaoyan
   \   0001CA   78..         MOV     R0,#?V0 + 4
   \   0001CC   12....       LCALL   ?L_MOV_TO_X
    449          		T[9]=jiaoyan/1000+48;
   \   0001CF   90....       MOV     DPTR,#jiaoyan
   \   0001D2   78..         MOV     R0,#?V0 + 0
   \   0001D4   12....       LCALL   ?L_MOV_X
   \   0001D7   90....       MOV     DPTR,#__Constant_3e8
   \   0001DA   78..         MOV     R0,#?V0 + 4
   \   0001DC   12....       LCALL   ?L_MOV_X
   \   0001DF   78..         MOV     R0,#?V0 + 0
   \   0001E1   79..         MOV     R1,#?V0 + 4
   \   0001E3   12....       LCALL   ?UL_DIV_MOD
   \   0001E6   12....       LCALL   ?Subroutine8 & 0xFFFF
    450              	T[10]=(jiaoyan/100)%10+48;
   \                     ??CrossCallReturnLabel_56:
   \   0001E9   12....       LCALL   ?L_MOV_X
   \   0001EC   90....       MOV     DPTR,#__Constant_64
   \   0001EF   78..         MOV     R0,#?V0 + 0
   \   0001F1   12....       LCALL   ?L_MOV_X
   \   0001F4   78..         MOV     R0,#?V0 + 4
   \   0001F6   79..         MOV     R1,#?V0 + 0
   \   0001F8   12....       LCALL   ?UL_DIV_MOD
   \   0001FB   90....       MOV     DPTR,#__Constant_a
   \   0001FE   78..         MOV     R0,#?V0 + 0
   \   000200   12....       LCALL   ?L_MOV_X
   \   000203   78..         MOV     R0,#?V0 + 4
   \   000205   79..         MOV     R1,#?V0 + 0
   \   000207   12....       LCALL   ?UL_DIV_MOD
   \   00020A   12....       LCALL   ?Subroutine16 & 0xFFFF
   \                     ??CrossCallReturnLabel_50:
   \   00020D   12....       LCALL   ??Subroutine27_0 & 0xFFFF
    451              	T[11]=(jiaoyan/10)%10+48;
   \                     ??CrossCallReturnLabel_58:
   \   000210   12....       LCALL   ?L_MOV_X
   \   000213   90....       MOV     DPTR,#__Constant_a
   \   000216   78..         MOV     R0,#?V0 + 0
   \   000218   12....       LCALL   ?L_MOV_X
   \   00021B   78..         MOV     R0,#?V0 + 4
   \   00021D   79..         MOV     R1,#?V0 + 0
   \   00021F   12....       LCALL   ?UL_DIV_MOD
   \   000222   90....       MOV     DPTR,#__Constant_a
   \   000225   78..         MOV     R0,#?V0 + 0
   \   000227   12....       LCALL   ?L_MOV_X
   \   00022A   78..         MOV     R0,#?V0 + 4
   \   00022C   79..         MOV     R1,#?V0 + 0
   \   00022E   12....       LCALL   ?UL_DIV_MOD
   \   000231   E5..         MOV     A,?V0 + 0
   \   000233   2430         ADD     A,#0x30
   \   000235   90....       MOV     DPTR,#T + 11
   \   000238   12....       LCALL   ??Subroutine27_0 & 0xFFFF
    452              	T[12]=jiaoyan%10+48;
   \                     ??CrossCallReturnLabel_59:
   \   00023B   12....       LCALL   ?L_MOV_X
   \   00023E   90....       MOV     DPTR,#__Constant_a
   \   000241   78..         MOV     R0,#?V0 + 0
   \   000243   12....       LCALL   ?L_MOV_X
   \   000246   78..         MOV     R0,#?V0 + 4
   \   000248   79..         MOV     R1,#?V0 + 0
   \   00024A   12....       LCALL   ?UL_DIV_MOD
   \   00024D   12....       LCALL   ?Subroutine5 & 0xFFFF
    453          		HalUARTWrite(0,"\n",1);
    454          		SendKongkouInfor(T);
    455          		HalUARTWrite(0,T,13);
    456          		if(w[0]==2)w[0]=0;
   \                     ??CrossCallReturnLabel_5:
   \   000250   E0           MOVX    A,@DPTR
   \   000251   6402         XRL     A,#0x2
   \   000253   6003         JZ      $+5
   \   000255   02....       LJMP    ??SampleApp_ProcessEvent_22 & 0xFFFF
   \   000258   E4           CLR     A
   \   000259   02....       LJMP    ??SampleApp_ProcessEvent_23 & 0xFFFF
    457          		
    458                    	}
    459          		  //HalLedSet(HAL_LED_1,HAL_LED_MODE_ON);
    460                else
    461                  {
    462                  
    463          		T[0]='*';
   \                     ??SampleApp_ProcessEvent_16:
   \   00025C   12....       LCALL   ?Subroutine7 & 0xFFFF
    464            		T[1]='1';
    465            		T[2]='3';
    466            		T[3]='1';
    467            		T[4]='0';
    468           		T[5]='0';
    469            		T[6]='0';
    470            		T[7]='1';
    471            		T[8]='1';
   \                     ??CrossCallReturnLabel_10:
   \   00025F   12....       LCALL   ?Subroutine12 & 0xFFFF
    472            		unsigned char  len = 16;
    473          		unsigned long  temp = 0; 
   \                     ??CrossCallReturnLabel_16:
   \   000262   12....       LCALL   ?L_MOV_X
    474          		unsigned char  i;
    475          		unsigned char  *ptr=T;
   \   000265   7C..         MOV     R4,#T & 0xff
   \   000267   7D..         MOV     R5,#(T >> 8) & 0xff
   \   000269   8049         SJMP    ??SampleApp_ProcessEvent_24
    476          
    477          	while(len--) 
    478          		{
    479          		for(i=0x80;i!=0;i=i>>1)
   \                     ??SampleApp_ProcessEvent_25:
   \   00026B   7980         MOV     R1,#-0x80
    480          		 {
    481          			  temp = temp * 2;
   \                     ??SampleApp_ProcessEvent_26:
   \   00026D   7401         MOV     A,#0x1
   \   00026F   78..         MOV     R0,#?V0 + 0
   \   000271   12....       LCALL   ?L_SHL
    482          			  if((temp & 0x10000) != 0)
   \   000274   85....       MOV     ?V0 + 4,?V0 + 0
   \   000277   85....       MOV     ?V0 + 5,?V0 + 1
   \   00027A   85....       MOV     ?V0 + 6,?V0 + 2
   \   00027D   85....       MOV     ?V0 + 7,?V0 + 3
   \   000280   90....       MOV     DPTR,#__Constant_10000
   \   000283   78..         MOV     R0,#?V0 + 4
   \   000285   12....       LCALL   ?L_AND_X
   \   000288   12....       LCALL   ?Subroutine14 & 0xFFFF
   \                     ??CrossCallReturnLabel_20:
   \   00028B   6008         JZ      ??SampleApp_ProcessEvent_27
    483          			  temp = temp ^ 0x11021;
   \   00028D   90....       MOV     DPTR,#__Constant_11021
   \   000290   78..         MOV     R0,#?V0 + 0
   \   000292   12....       LCALL   ?L_XOR_X
    484          			  if((*ptr & i) != 0)
   \                     ??SampleApp_ProcessEvent_27:
   \   000295   8C82         MOV     DPL,R4
   \   000297   8D83         MOV     DPH,R5
   \   000299   E0           MOVX    A,@DPTR
   \   00029A   59           ANL     A,R1
   \   00029B   6008         JZ      ??SampleApp_ProcessEvent_28
    485          			  temp = temp ^ (0x10000 ^ 0x11021);
   \   00029D   90....       MOV     DPTR,#__Constant_1021
   \   0002A0   78..         MOV     R0,#?V0 + 0
   \   0002A2   12....       LCALL   ?L_XOR_X
    486          		 }
   \                     ??SampleApp_ProcessEvent_28:
   \   0002A5   E9           MOV     A,R1
   \   0002A6   C3           CLR     C
   \   0002A7   13           RRC     A
   \   0002A8   F9           MOV     R1,A
   \   0002A9   70C2         JNZ     ??SampleApp_ProcessEvent_26
    487          	
    488          		 ptr++;
   \   0002AB   8C82         MOV     DPL,R4
   \   0002AD   8D83         MOV     DPH,R5
   \   0002AF   A3           INC     DPTR
   \   0002B0   AC82         MOV     R4,DPL
   \   0002B2   AD83         MOV     R5,DPH
    489          		}
   \                     ??SampleApp_ProcessEvent_24:
   \   0002B4   8A..         MOV     ?V0 + 4,R2
   \   0002B6   74FF         MOV     A,#-0x1
   \   0002B8   25..         ADD     A,?V0 + 4
   \   0002BA   1A           DEC     R2
   \   0002BB   04           INC     A
   \   0002BC   70AD         JNZ     ??SampleApp_ProcessEvent_25
    490          		jiaoyan= temp%10;
   \   0002BE   85....       MOV     ?V0 + 8,?V0 + 0
   \   0002C1   85....       MOV     ?V0 + 9,?V0 + 1
   \   0002C4   85....       MOV     ?V0 + 10,?V0 + 2
   \   0002C7   85....       MOV     ?V0 + 11,?V0 + 3
   \   0002CA   90....       MOV     DPTR,#__Constant_a
   \   0002CD   78..         MOV     R0,#?V0 + 0
   \   0002CF   12....       LCALL   ?L_MOV_X
   \   0002D2   78..         MOV     R0,#?V0 + 8
   \   0002D4   79..         MOV     R1,#?V0 + 0
   \   0002D6   12....       LCALL   ?UL_DIV_MOD
   \   0002D9   12....       LCALL   ?Subroutine10 & 0xFFFF
   \                     ??CrossCallReturnLabel_13:
   \   0002DC   F0           MOVX    @DPTR,A
    491          	T[9]=jiaoyan/1000+48;
   \   0002DD   90....       MOV     DPTR,#jiaoyan
   \   0002E0   78..         MOV     R0,#?V0 + 8
   \   0002E2   12....       LCALL   ?L_MOV_X
   \   0002E5   90....       MOV     DPTR,#__Constant_3e8
   \   0002E8   78..         MOV     R0,#?V0 + 0
   \   0002EA   12....       LCALL   ?L_MOV_X
   \   0002ED   78..         MOV     R0,#?V0 + 8
   \   0002EF   79..         MOV     R1,#?V0 + 0
   \   0002F1   12....       LCALL   ?UL_DIV_MOD
   \   0002F4   E5..         MOV     A,?V0 + 8
   \   0002F6   12....       LCALL   ?Subroutine11 & 0xFFFF
    492              T[10]=(jiaoyan/100)%10+48;
   \                     ??CrossCallReturnLabel_52:
   \   0002F9   12....       LCALL   ?L_MOV_X
   \   0002FC   90....       MOV     DPTR,#__Constant_64
   \   0002FF   78..         MOV     R0,#?V0 + 8
   \   000301   12....       LCALL   ?L_MOV_X
   \   000304   78..         MOV     R0,#?V0 + 0
   \   000306   79..         MOV     R1,#?V0 + 8
   \   000308   12....       LCALL   ?UL_DIV_MOD
   \   00030B   90....       MOV     DPTR,#__Constant_a
   \   00030E   78..         MOV     R0,#?V0 + 8
   \   000310   12....       LCALL   ?L_MOV_X
   \   000313   78..         MOV     R0,#?V0 + 0
   \   000315   79..         MOV     R1,#?V0 + 8
   \   000317   12....       LCALL   ?UL_DIV_MOD
   \   00031A   E5..         MOV     A,?V0 + 8
   \   00031C   12....       LCALL   ??Subroutine25_0 & 0xFFFF
   \                     ??CrossCallReturnLabel_48:
   \   00031F   12....       LCALL   ??Subroutine26_0 & 0xFFFF
    493              T[11]=(jiaoyan/10)%10+48;
   \                     ??CrossCallReturnLabel_54:
   \   000322   12....       LCALL   ?L_MOV_X
   \   000325   90....       MOV     DPTR,#__Constant_a
   \   000328   78..         MOV     R0,#?V0 + 8
   \   00032A   12....       LCALL   ?L_MOV_X
   \   00032D   78..         MOV     R0,#?V0 + 0
   \   00032F   79..         MOV     R1,#?V0 + 8
   \   000331   12....       LCALL   ?UL_DIV_MOD
   \   000334   90....       MOV     DPTR,#__Constant_a
   \   000337   78..         MOV     R0,#?V0 + 8
   \   000339   12....       LCALL   ?L_MOV_X
   \   00033C   78..         MOV     R0,#?V0 + 0
   \   00033E   79..         MOV     R1,#?V0 + 8
   \   000340   12....       LCALL   ?UL_DIV_MOD
   \   000343   E5..         MOV     A,?V0 + 8
   \   000345   2430         ADD     A,#0x30
   \   000347   90....       MOV     DPTR,#T + 11
   \   00034A   F0           MOVX    @DPTR,A
    494              T[12]=jiaoyan%10+48;
   \   00034B   90....       MOV     DPTR,#jiaoyan
   \   00034E   78..         MOV     R0,#?V0 + 8
   \   000350   12....       LCALL   ?L_MOV_X
   \   000353   90....       MOV     DPTR,#__Constant_a
   \   000356   78..         MOV     R0,#?V0 + 0
   \   000358   12....       LCALL   ?L_MOV_X
   \   00035B   78..         MOV     R0,#?V0 + 8
   \   00035D   79..         MOV     R1,#?V0 + 0
   \   00035F   12....       LCALL   ?UL_DIV_MOD
   \   000362   12....       LCALL   ?Subroutine5 & 0xFFFF
    495          	HalUARTWrite(0,"\n",1);
    496          	SendKongkouInfor(T);
    497          	HalUARTWrite(0,T,13);
    498          	w[0]=2;
    499               }
   \                     ??CrossCallReturnLabel_6:
   \   000365   7402         MOV     A,#0x2
   \                     ??SampleApp_ProcessEvent_23:
   \   000367   F0           MOVX    @DPTR,A
    500          		osal_start_timerEx (SampleApp_TaskID, MY_SEND_UART, 1000); //5s定时器
   \                     ??SampleApp_ProcessEvent_22:
   \   000368                ; Setup parameters for call to function osal_start_timerEx
   \   000368   7CE8         MOV     R4,#-0x18
   \   00036A   7D03         MOV     R5,#0x3
   \   00036C   7A02         MOV     R2,#0x2
   \   00036E   12....       LCALL   ??Subroutine22_0 & 0xFFFF
    501                    
    502          		  return (events ^ MY_SEND_UART);
   \                     ??CrossCallReturnLabel_38:
   \   000371   EE           MOV     A,R6
   \   000372   6402         XRL     A,#0x2
   \   000374   02....       LJMP    ??SampleApp_ProcessEvent_14 & 0xFFFF
    503            	}
    504          	if (events & MY_SEND2_UART)  
   \                     ??SampleApp_ProcessEvent_15:
   \   000377   EE           MOV     A,R6
   \   000378   5404         ANL     A,#0x4
   \   00037A   604F         JZ      ??CrossCallReturnLabel_39
    505            	{
    506          		//HalUARTWrite(0,"a",1);
    507          
    508          	 if(f==1)
   \   00037C   90....       MOV     DPTR,#f
   \   00037F   E0           MOVX    A,@DPTR
   \   000380   6401         XRL     A,#0x1
   \   000382   7014         JNZ     ??SampleApp_ProcessEvent_29
    509               	{
    510                  e=!e;
   \   000384   90....       MOV     DPTR,#e
   \   000387   E0           MOVX    A,@DPTR
   \   000388   7004         JNZ     ??SampleApp_ProcessEvent_30
   \   00038A   7401         MOV     A,#0x1
   \   00038C   8001         SJMP    ??SampleApp_ProcessEvent_31
   \                     ??SampleApp_ProcessEvent_30:
   \   00038E   E4           CLR     A
   \                     ??SampleApp_ProcessEvent_31:
   \   00038F   F0           MOVX    @DPTR,A
    511          		if(e){
   \   000390   A2E0         MOV     C,0xE0 /* A   */.0
   \   000392   5004         JNC     ??SampleApp_ProcessEvent_29
    512                       HalLedSet(HAL_LED_1,HAL_LED_MODE_ON);
   \   000394                ; Setup parameters for call to function HalLedSet
   \   000394   7A01         MOV     R2,#0x1
   \   000396   8002         SJMP    ??SampleApp_ProcessEvent_32
    513          			 }
    514          		else HalLedSet(HAL_LED_1,HAL_LED_MODE_OFF);
   \                     ??SampleApp_ProcessEvent_29:
   \   000398                ; Setup parameters for call to function HalLedSet
   \   000398   7A00         MOV     R2,#0x0
   \                     ??SampleApp_ProcessEvent_32:
   \   00039A   7901         MOV     R1,#0x1
   \   00039C   12....       LCALL   ??HalLedSet?relay
    515          	 	}
    516          	 else HalLedSet(HAL_LED_1,HAL_LED_MODE_OFF);
    517          	 if(s==1)
   \   00039F   90....       MOV     DPTR,#`s`
   \   0003A2   E0           MOVX    A,@DPTR
   \   0003A3   6401         XRL     A,#0x1
   \   0003A5   7014         JNZ     ??SampleApp_ProcessEvent_33
    518               	{
    519                  r=!r;
   \   0003A7   90....       MOV     DPTR,#r
   \   0003AA   E0           MOVX    A,@DPTR
   \   0003AB   7004         JNZ     ??SampleApp_ProcessEvent_34
   \   0003AD   7401         MOV     A,#0x1
   \   0003AF   8001         SJMP    ??SampleApp_ProcessEvent_35
   \                     ??SampleApp_ProcessEvent_34:
   \   0003B1   E4           CLR     A
   \                     ??SampleApp_ProcessEvent_35:
   \   0003B2   F0           MOVX    @DPTR,A
    520          		if(r){
   \   0003B3   A2E0         MOV     C,0xE0 /* A   */.0
   \   0003B5   5004         JNC     ??SampleApp_ProcessEvent_33
    521                       HalLedSet(HAL_LED_2,HAL_LED_MODE_ON);
   \   0003B7                ; Setup parameters for call to function HalLedSet
   \   0003B7   7A01         MOV     R2,#0x1
   \   0003B9   8002         SJMP    ??SampleApp_ProcessEvent_36
    522          			 }
    523          		else HalLedSet(HAL_LED_2,HAL_LED_MODE_OFF);
   \                     ??SampleApp_ProcessEvent_33:
   \   0003BB                ; Setup parameters for call to function HalLedSet
   \   0003BB   7A00         MOV     R2,#0x0
   \                     ??SampleApp_ProcessEvent_36:
   \   0003BD   7902         MOV     R1,#0x2
   \   0003BF   12....       LCALL   ??HalLedSet?relay
    524          	 	}
    525          	 else HalLedSet(HAL_LED_2,HAL_LED_MODE_OFF);
    526          	 osal_start_timerEx (SampleApp_TaskID, MY_SEND2_UART, 1000);
   \   0003C2                ; Setup parameters for call to function osal_start_timerEx
   \   0003C2   7CE8         MOV     R4,#-0x18
   \   0003C4   7D03         MOV     R5,#0x3
   \   0003C6   7A04         MOV     R2,#0x4
   \   0003C8   12....       LCALL   ??Subroutine22_0 & 0xFFFF
    527          	}
    528          	if (events & MY_SEND3_UART)  
   \                     ??CrossCallReturnLabel_39:
   \   0003CB   EE           MOV     A,R6
   \   0003CC   5408         ANL     A,#0x8
   \   0003CE   602C         JZ      ??CrossCallReturnLabel_40
    529          		{
    530          		 
    531          		    if(w[0]==1){
   \   0003D0   90....       MOV     DPTR,#w
   \   0003D3   E0           MOVX    A,@DPTR
   \   0003D4   6401         XRL     A,#0x1
   \   0003D6   701B         JNZ     ??SampleApp_ProcessEvent_37
    532          			z=!z;
   \   0003D8   90....       MOV     DPTR,#z
   \   0003DB   E0           MOVX    A,@DPTR
   \   0003DC   7004         JNZ     ??SampleApp_ProcessEvent_38
   \   0003DE   7401         MOV     A,#0x1
   \   0003E0   8001         SJMP    ??SampleApp_ProcessEvent_39
   \                     ??SampleApp_ProcessEvent_38:
   \   0003E2   E4           CLR     A
   \                     ??SampleApp_ProcessEvent_39:
   \   0003E3   F0           MOVX    @DPTR,A
    533          			if(z){
   \   0003E4   A2E0         MOV     C,0xE0 /* A   */.0
   \   0003E6   5004         JNC     ??SampleApp_ProcessEvent_40
    534          				 HalLedSet(HAL_LED_2,HAL_LED_MODE_ON);
   \   0003E8                ; Setup parameters for call to function HalLedSet
   \   0003E8   7A01         MOV     R2,#0x1
   \   0003EA   8002         SJMP    ??SampleApp_ProcessEvent_41
    535          				 }
    536          			else HalLedSet(HAL_LED_2,HAL_LED_MODE_OFF);
   \                     ??SampleApp_ProcessEvent_40:
   \   0003EC                ; Setup parameters for call to function HalLedSet
   \   0003EC   7A00         MOV     R2,#0x0
   \                     ??SampleApp_ProcessEvent_41:
   \   0003EE   7902         MOV     R1,#0x2
   \   0003F0   12....       LCALL   ??HalLedSet?relay
    537          			}
    538          			
    539          		 osal_start_timerEx (SampleApp_TaskID, MY_SEND3_UART, 500);
   \                     ??SampleApp_ProcessEvent_37:
   \   0003F3                ; Setup parameters for call to function osal_start_timerEx
   \   0003F3   7CF4         MOV     R4,#-0xc
   \   0003F5   7D01         MOV     R5,#0x1
   \   0003F7   7A08         MOV     R2,#0x8
   \   0003F9   12....       LCALL   ??Subroutine22_0 & 0xFFFF
    540          		}
    541          
    542            // Discard unknown events
    543            return 0;
   \                     ??CrossCallReturnLabel_40:
   \   0003FC   7A00         MOV     R2,#0x0
   \   0003FE   7B00         MOV     R3,#0x0
   \                     ??SampleApp_ProcessEvent_12:
   \   000400   740C         MOV     A,#0xc
   \   000402   12....       LCALL   ?DEALLOC_XSTACK8
   \   000405   7F0D         MOV     R7,#0xd
   \   000407   02....       LJMP    ?BANKED_LEAVE_XDATA
   \   00040A                REQUIRE _A_P2
    544          }

   \                                 In  segment BANKED_CODE, align 1, keep-with-next
   \                     ?Subroutine12:
   \   000000   F0           MOVX    @DPTR,A
   \   000001   7A10         MOV     R2,#0x10
   \   000003   90....       MOV     DPTR,#__Constant_0
   \   000006   78..         MOV     R0,#?V0 + 0
   \   000008   22           RET

   \                                 In  segment BANKED_CODE, align 1, keep-with-next
   \                     ?Subroutine7:
   \   000000   12....       LCALL   ?Subroutine20 & 0xFFFF
   \                     ??CrossCallReturnLabel_29:
   \   000003   7431         MOV     A,#0x31
   \   000005   F0           MOVX    @DPTR,A
   \   000006   A3           INC     DPTR
   \   000007   14           DEC     A
   \   000008   F0           MOVX    @DPTR,A
   \   000009   A3           INC     DPTR
   \   00000A   F0           MOVX    @DPTR,A
   \   00000B   A3           INC     DPTR
   \   00000C   F0           MOVX    @DPTR,A
   \   00000D   A3           INC     DPTR
   \   00000E   04           INC     A
   \   00000F   F0           MOVX    @DPTR,A
   \   000010   A3           INC     DPTR
   \   000011   22           RET

   \                                 In  segment BANKED_CODE, align 1, keep-with-next
   \                     ?Subroutine5:
   \   000000   12....       LCALL   ?Subroutine18 & 0xFFFF
   \                     ??CrossCallReturnLabel_25:
   \   000003   90....       MOV     DPTR,#w
   \   000006   22           RET

   \                                 In  segment BANKED_CODE, align 1, keep-with-next
   \                     ?Subroutine2:
   \   000000   7A01         MOV     R2,#0x1
   \   000002                REQUIRE ??Subroutine22_0
   \   000002                ; // Fall through to label ??Subroutine22_0

   \                                 In  segment BANKED_CODE, align 1, keep-with-next
   \                     ??Subroutine22_0:
   \   000000   7B00         MOV     R3,#0x0
   \   000002   90....       MOV     DPTR,#SampleApp_TaskID
   \   000005   E0           MOVX    A,@DPTR
   \   000006   F9           MOV     R1,A
   \   000007   12....       LCALL   ??osal_start_timerEx?relay
   \   00000A   22           RET

   \                                 In  segment BANKED_CODE, align 1, keep-with-next
   \                     ?Subroutine18:
   \   000000   E5..         MOV     A,?V0 + 0
   \   000002   2430         ADD     A,#0x30
   \   000004   90....       MOV     DPTR,#T + 12
   \   000007   F0           MOVX    @DPTR,A
   \   000008                ; Setup parameters for call to function HalUARTWrite
   \   000008                ; Setup parameters for call to function HalUARTWrite
   \   000008                ; Setup parameters for call to function HalUARTWrite
   \   000008   7C01         MOV     R4,#0x1
   \   00000A   7D00         MOV     R5,#0x0
   \   00000C   7A..         MOV     R2,#`?<Constant "\\n">` & 0xff
   \   00000E   7B..         MOV     R3,#(`?<Constant "\\n">` >> 8) & 0xff
   \   000010   7900         MOV     R1,#0x0
   \   000012   12....       LCALL   ??HalUARTWrite?relay
   \   000015                ; Setup parameters for call to function SendKongkouInfor
   \   000015                ; Setup parameters for call to function SendKongkouInfor
   \   000015                ; Setup parameters for call to function SendKongkouInfor
   \   000015   7A..         MOV     R2,#T & 0xff
   \   000017   7B..         MOV     R3,#(T >> 8) & 0xff
   \   000019   12....       LCALL   ??SendKongkouInfor?relay
   \   00001C                ; Setup parameters for call to function HalUARTWrite
   \   00001C                ; Setup parameters for call to function HalUARTWrite
   \   00001C                ; Setup parameters for call to function HalUARTWrite
   \   00001C   7C0D         MOV     R4,#0xd
   \   00001E   7D00         MOV     R5,#0x0
   \   000020   7A..         MOV     R2,#T & 0xff
   \   000022   7B..         MOV     R3,#(T >> 8) & 0xff
   \   000024   7900         MOV     R1,#0x0
   \   000026   12....       LCALL   ??HalUARTWrite?relay
   \   000029   22           RET

   \                                 In  segment BANKED_CODE, align 1, keep-with-next
   \                     ?Subroutine16:
   \   000000   E5..         MOV     A,?V0 + 0
   \   000002                REQUIRE ??Subroutine25_0
   \   000002                ; // Fall through to label ??Subroutine25_0

   \                                 In  segment BANKED_CODE, align 1, keep-with-next
   \                     ??Subroutine25_0:
   \   000000   2430         ADD     A,#0x30
   \   000002   90....       MOV     DPTR,#T + 10
   \   000005   22           RET

   \                                 In  segment BANKED_CODE, align 1, keep-with-next
   \                     ?Subroutine14:
   \   000000   E5..         MOV     A,?V0 + 4
   \   000002   45..         ORL     A,?V0 + 5
   \   000004   45..         ORL     A,?V0 + 6
   \   000006   45..         ORL     A,?V0 + 7
   \   000008   22           RET

   \                                 In  segment BANKED_CODE, align 1, keep-with-next
   \                     ?Subroutine11:
   \   000000   2430         ADD     A,#0x30
   \   000002   90....       MOV     DPTR,#T + 9
   \   000005                REQUIRE ??Subroutine26_0
   \   000005                ; // Fall through to label ??Subroutine26_0

   \                                 In  segment BANKED_CODE, align 1, keep-with-next
   \                     ??Subroutine26_0:
   \   000000   F0           MOVX    @DPTR,A
   \   000001   90....       MOV     DPTR,#jiaoyan
   \   000004   78..         MOV     R0,#?V0 + 0
   \   000006   22           RET

   \                                 In  segment BANKED_CODE, align 1, keep-with-next
   \                     ?Subroutine10:
   \   000000   90....       MOV     DPTR,#jiaoyan
   \   000003   E5..         MOV     A,?V0 + 0
   \   000005   F0           MOVX    @DPTR,A
   \   000006   A3           INC     DPTR
   \   000007   E5..         MOV     A,?V0 + 1
   \   000009   F0           MOVX    @DPTR,A
   \   00000A   A3           INC     DPTR
   \   00000B   E5..         MOV     A,?V0 + 2
   \   00000D   F0           MOVX    @DPTR,A
   \   00000E   A3           INC     DPTR
   \   00000F   E5..         MOV     A,?V0 + 3
   \   000011   22           RET

   \                                 In  segment BANKED_CODE, align 1, keep-with-next
   \                     ?Subroutine8:
   \   000000   E5..         MOV     A,?V0 + 0
   \   000002   2430         ADD     A,#0x30
   \   000004   90....       MOV     DPTR,#T + 9
   \   000007                REQUIRE ??Subroutine27_0
   \   000007                ; // Fall through to label ??Subroutine27_0

   \                                 In  segment BANKED_CODE, align 1, keep-with-next
   \                     ??Subroutine27_0:
   \   000000   F0           MOVX    @DPTR,A
   \   000001   90....       MOV     DPTR,#jiaoyan
   \   000004   78..         MOV     R0,#?V0 + 4
   \   000006   22           RET

   \                                 In  segment BANKED_CODE, align 1, keep-with-next
   \                     ?Subroutine20:
   \   000000   90....       MOV     DPTR,#T
   \   000003   742A         MOV     A,#0x2a
   \   000005   F0           MOVX    @DPTR,A
   \   000006   A3           INC     DPTR
   \   000007   7431         MOV     A,#0x31
   \   000009   F0           MOVX    @DPTR,A
   \   00000A   A3           INC     DPTR
   \   00000B   7433         MOV     A,#0x33
   \   00000D   F0           MOVX    @DPTR,A
   \   00000E   A3           INC     DPTR
   \   00000F   22           RET

   \                                 In  segment BANKED_CODE, align 1, keep-with-next
   \                     ?Subroutine3:
   \   000000   E0           MOVX    A,@DPTR
   \   000001   F8           MOV     R0,A
   \   000002   A3           INC     DPTR
   \   000003   E0           MOVX    A,@DPTR
   \   000004   F9           MOV     R1,A
   \   000005                ; Setup parameters for call to function HalLedBlink
   \   000005   8882         MOV     DPL,R0
   \   000007   8983         MOV     DPH,R1
   \   000009   22           RET
    545          
    546          
    547          /*********************************************************************
    548           * Event Generation Functions
    549           */
    550          /*********************************************************************
    551           * @fn      SampleApp_HandleKeys
    552           *
    553           * @brief   Handles all key events for this device.
    554           *
    555           * @param   shift - true if in shift/alt.
    556           * @param   keys - bit field for key events. Valid entries:
    557           *                 HAL_KEY_SW_2
    558           *                 HAL_KEY_SW_1
    559           *
    560           * @return  none
    561           */

   \                                 In  segment BANKED_CODE, align 1, keep-with-next
    562          void SampleApp_HandleKeys( uint8 shift, uint8 keys )
   \                     SampleApp_HandleKeys:
    563          {
   \   000000   74EF         MOV     A,#-0x11
   \   000002   12....       LCALL   ?BANKED_ENTER_XDATA
   \   000005                ; Saved register size: 17
   \   000005                ; Auto size: 12
   \   000005   74F4         MOV     A,#-0xc
   \   000007   12....       LCALL   ?ALLOC_XSTACK8
   \   00000A   8A..         MOV     ?V0 + 8,R2
    564            (void)shift;  // Intentionally unreferenced parameter
    565            
    566            if ( keys & HAL_KEY_SW_7 )
   \   00000C   EA           MOV     A,R2
   \   00000D   A2E6         MOV     C,0xE0 /* A   */.6
   \   00000F   4003         JC      $+5
   \   000011   02....       LJMP    ??CrossCallReturnLabel_26 & 0xFFFF
    567            {
    568          
    569            if(w[0]==2){
   \   000014   90....       MOV     DPTR,#w
   \   000017   E0           MOVX    A,@DPTR
   \   000018   6402         XRL     A,#0x2
   \   00001A   6003         JZ      $+5
   \   00001C   02....       LJMP    ??CrossCallReturnLabel_26 & 0xFFFF
    570            if(s==0)
   \   00001F   90....       MOV     DPTR,#`s`
   \   000022   E0           MOVX    A,@DPTR
   \   000023   6003         JZ      $+5
   \   000025   02....       LJMP    ??SampleApp_HandleKeys_0 & 0xFFFF
    571            {s=1;
   \   000028   7401         MOV     A,#0x1
   \   00002A   12....       LCALL   ?Subroutine6 & 0xFFFF
    572            T[0]='*';
    573            T[1]='1';
    574            T[2]='3';
    575            T[3]='4';
    576            T[4]='0';
    577            T[5]='0';
    578            T[6]='0';
    579            T[7]='0';
    580            T[8]='0';
   \                     ??CrossCallReturnLabel_7:
   \   00002D   12....       LCALL   ?Subroutine13 & 0xFFFF
    581            unsigned char  len = 16;
    582            unsigned long  temp = 0; 
   \                     ??CrossCallReturnLabel_17:
   \   000030   12....       LCALL   ?L_MOV_X
    583            unsigned char  i;
    584            unsigned char  *ptr=T;
   \   000033   7C..         MOV     R4,#T & 0xff
   \   000035   7D..         MOV     R5,#(T >> 8) & 0xff
   \   000037   8049         SJMP    ??SampleApp_HandleKeys_1
    585          
    586          	while(len--) 
    587          	{
    588          	for(i=0x80;i!=0;i=i>>1)
   \                     ??SampleApp_HandleKeys_2:
   \   000039   7A80         MOV     R2,#-0x80
    589          	{
    590          		temp = temp * 2;
   \                     ??SampleApp_HandleKeys_3:
   \   00003B   7401         MOV     A,#0x1
   \   00003D   78..         MOV     R0,#?V0 + 0
   \   00003F   12....       LCALL   ?L_SHL
    591          		if((temp & 0x10000) != 0)
   \   000042   85....       MOV     ?V0 + 4,?V0 + 0
   \   000045   85....       MOV     ?V0 + 5,?V0 + 1
   \   000048   85....       MOV     ?V0 + 6,?V0 + 2
   \   00004B   85....       MOV     ?V0 + 7,?V0 + 3
   \   00004E   90....       MOV     DPTR,#__Constant_10000
   \   000051   78..         MOV     R0,#?V0 + 4
   \   000053   12....       LCALL   ?L_AND_X
   \   000056   12....       LCALL   ?Subroutine14 & 0xFFFF
   \                     ??CrossCallReturnLabel_21:
   \   000059   6008         JZ      ??SampleApp_HandleKeys_4
    592          		temp = temp ^ 0x11021;
   \   00005B   90....       MOV     DPTR,#__Constant_11021
   \   00005E   78..         MOV     R0,#?V0 + 0
   \   000060   12....       LCALL   ?L_XOR_X
    593          		if((*ptr & i) != 0)
   \                     ??SampleApp_HandleKeys_4:
   \   000063   8C82         MOV     DPL,R4
   \   000065   8D83         MOV     DPH,R5
   \   000067   E0           MOVX    A,@DPTR
   \   000068   5A           ANL     A,R2
   \   000069   6008         JZ      ??SampleApp_HandleKeys_5
    594          			  temp = temp ^ (0x10000 ^ 0x11021);
   \   00006B   90....       MOV     DPTR,#__Constant_1021
   \   00006E   78..         MOV     R0,#?V0 + 0
   \   000070   12....       LCALL   ?L_XOR_X
    595          		 }
   \                     ??SampleApp_HandleKeys_5:
   \   000073   EA           MOV     A,R2
   \   000074   C3           CLR     C
   \   000075   13           RRC     A
   \   000076   FA           MOV     R2,A
   \   000077   70C2         JNZ     ??SampleApp_HandleKeys_3
    596          	
    597          		 ptr++;
   \   000079   8C82         MOV     DPL,R4
   \   00007B   8D83         MOV     DPH,R5
   \   00007D   A3           INC     DPTR
   \   00007E   AC82         MOV     R4,DPL
   \   000080   AD83         MOV     R5,DPH
    598          		}
   \                     ??SampleApp_HandleKeys_1:
   \   000082   E9           MOV     A,R1
   \   000083   FE           MOV     R6,A
   \   000084   74FF         MOV     A,#-0x1
   \   000086   2E           ADD     A,R6
   \   000087   19           DEC     R1
   \   000088   04           INC     A
   \   000089   70AE         JNZ     ??SampleApp_HandleKeys_2
    599            jiaoyan= temp%10;
   \   00008B   90....       MOV     DPTR,#__Constant_a
   \   00008E   78..         MOV     R0,#?V0 + 4
   \   000090   12....       LCALL   ?L_MOV_X
   \   000093   78..         MOV     R0,#?V0 + 0
   \   000095   79..         MOV     R1,#?V0 + 4
   \   000097   12....       LCALL   ?UL_DIV_MOD
   \   00009A   90....       MOV     DPTR,#jiaoyan
   \   00009D   78..         MOV     R0,#?V0 + 4
   \   00009F   12....       LCALL   ?L_MOV_TO_X
    600            T[9]=jiaoyan/1000+48;
   \   0000A2   90....       MOV     DPTR,#jiaoyan
   \   0000A5   78..         MOV     R0,#?V0 + 0
   \   0000A7   12....       LCALL   ?L_MOV_X
   \   0000AA   90....       MOV     DPTR,#__Constant_3e8
   \   0000AD   78..         MOV     R0,#?V0 + 4
   \   0000AF   12....       LCALL   ?L_MOV_X
   \   0000B2   78..         MOV     R0,#?V0 + 0
   \   0000B4   79..         MOV     R1,#?V0 + 4
   \   0000B6   12....       LCALL   ?UL_DIV_MOD
   \   0000B9   12....       LCALL   ?Subroutine8 & 0xFFFF
    601            T[10]=(jiaoyan/100)%10+48;
    602            T[11]=(jiaoyan/10)%10+48;
    603            T[12]=jiaoyan%10+48;
    604            HalUARTWrite(0,"\n",1);
    605            SendKongkouInfor(T);
    606            HalUARTWrite(0,T,13); 
    607            	}
   \                     ??CrossCallReturnLabel_57:
   \   0000BC   12....       LCALL   ?L_MOV_X
   \   0000BF   90....       MOV     DPTR,#__Constant_64
   \   0000C2   78..         MOV     R0,#?V0 + 0
   \   0000C4   12....       LCALL   ?L_MOV_X
   \   0000C7   78..         MOV     R0,#?V0 + 4
   \   0000C9   79..         MOV     R1,#?V0 + 0
   \   0000CB   12....       LCALL   ?UL_DIV_MOD
   \   0000CE   90....       MOV     DPTR,#__Constant_a
   \   0000D1   78..         MOV     R0,#?V0 + 0
   \   0000D3   12....       LCALL   ?L_MOV_X
   \   0000D6   78..         MOV     R0,#?V0 + 4
   \   0000D8   79..         MOV     R1,#?V0 + 0
   \   0000DA   12....       LCALL   ?UL_DIV_MOD
   \   0000DD   12....       LCALL   ?Subroutine16 & 0xFFFF
   \                     ??CrossCallReturnLabel_51:
   \   0000E0   12....       LCALL   ??Subroutine27_0 & 0xFFFF
   \                     ??CrossCallReturnLabel_60:
   \   0000E3   12....       LCALL   ?L_MOV_X
   \   0000E6   90....       MOV     DPTR,#__Constant_a
   \   0000E9   78..         MOV     R0,#?V0 + 0
   \   0000EB   12....       LCALL   ?L_MOV_X
   \   0000EE   78..         MOV     R0,#?V0 + 4
   \   0000F0   79..         MOV     R1,#?V0 + 0
   \   0000F2   12....       LCALL   ?UL_DIV_MOD
   \   0000F5   90....       MOV     DPTR,#__Constant_a
   \   0000F8   78..         MOV     R0,#?V0 + 0
   \   0000FA   12....       LCALL   ?L_MOV_X
   \   0000FD   78..         MOV     R0,#?V0 + 4
   \   0000FF   79..         MOV     R1,#?V0 + 0
   \   000101   12....       LCALL   ?UL_DIV_MOD
   \   000104   E5..         MOV     A,?V0 + 0
   \   000106   02....       LJMP    ??SampleApp_HandleKeys_6 & 0xFFFF
    608            else
    609            	{
    610          	  s=0;
   \                     ??SampleApp_HandleKeys_0:
   \   000109   E4           CLR     A
   \   00010A   12....       LCALL   ?Subroutine6 & 0xFFFF
    611          		T[0]='*';
    612          		T[1]='1';
    613          		T[2]='3';
    614          		T[3]='4';
    615          		T[4]='0';
    616          		T[5]='0';
    617          		T[6]='0';
    618          		T[7]='0';
    619          		T[8]='3';
   \                     ??CrossCallReturnLabel_8:
   \   00010D   7433         MOV     A,#0x33
   \   00010F   12....       LCALL   ?Subroutine13 & 0xFFFF
    620          		unsigned char  len = 16;
    621          		unsigned long  temp = 0; 
   \                     ??CrossCallReturnLabel_18:
   \   000112   12....       LCALL   ?L_MOV_X
    622          		unsigned char  i;
    623          		unsigned char  *ptr=T;
   \   000115   7C..         MOV     R4,#T & 0xff
   \   000117   7D..         MOV     R5,#(T >> 8) & 0xff
   \   000119   8049         SJMP    ??SampleApp_HandleKeys_7
    624          	  
    625          		  while(len--) 
    626          		  {
    627          		  for(i=0x80;i!=0;i=i>>1)
   \                     ??SampleApp_HandleKeys_8:
   \   00011B   7A80         MOV     R2,#-0x80
    628          		  {
    629          			  temp = temp * 2;
   \                     ??SampleApp_HandleKeys_9:
   \   00011D   7401         MOV     A,#0x1
   \   00011F   78..         MOV     R0,#?V0 + 0
   \   000121   12....       LCALL   ?L_SHL
    630          			  if((temp & 0x10000) != 0)
   \   000124   85....       MOV     ?V0 + 4,?V0 + 0
   \   000127   85....       MOV     ?V0 + 5,?V0 + 1
   \   00012A   85....       MOV     ?V0 + 6,?V0 + 2
   \   00012D   85....       MOV     ?V0 + 7,?V0 + 3
   \   000130   90....       MOV     DPTR,#__Constant_10000
   \   000133   78..         MOV     R0,#?V0 + 4
   \   000135   12....       LCALL   ?L_AND_X
   \   000138   12....       LCALL   ?Subroutine14 & 0xFFFF
   \                     ??CrossCallReturnLabel_22:
   \   00013B   6008         JZ      ??SampleApp_HandleKeys_10
    631          			  temp = temp ^ 0x11021;
   \   00013D   90....       MOV     DPTR,#__Constant_11021
   \   000140   78..         MOV     R0,#?V0 + 0
   \   000142   12....       LCALL   ?L_XOR_X
    632          			  if((*ptr & i) != 0)
   \                     ??SampleApp_HandleKeys_10:
   \   000145   8C82         MOV     DPL,R4
   \   000147   8D83         MOV     DPH,R5
   \   000149   E0           MOVX    A,@DPTR
   \   00014A   5A           ANL     A,R2
   \   00014B   6008         JZ      ??SampleApp_HandleKeys_11
    633          					temp = temp ^ (0x10000 ^ 0x11021);
   \   00014D   90....       MOV     DPTR,#__Constant_1021
   \   000150   78..         MOV     R0,#?V0 + 0
   \   000152   12....       LCALL   ?L_XOR_X
    634          			   }
   \                     ??SampleApp_HandleKeys_11:
   \   000155   EA           MOV     A,R2
   \   000156   C3           CLR     C
   \   000157   13           RRC     A
   \   000158   FA           MOV     R2,A
   \   000159   70C2         JNZ     ??SampleApp_HandleKeys_9
    635          		  
    636          			   ptr++;
   \   00015B   8C82         MOV     DPL,R4
   \   00015D   8D83         MOV     DPH,R5
   \   00015F   A3           INC     DPTR
   \   000160   AC82         MOV     R4,DPL
   \   000162   AD83         MOV     R5,DPH
    637          			  }
   \                     ??SampleApp_HandleKeys_7:
   \   000164   E9           MOV     A,R1
   \   000165   FF           MOV     R7,A
   \   000166   74FF         MOV     A,#-0x1
   \   000168   2F           ADD     A,R7
   \   000169   19           DEC     R1
   \   00016A   04           INC     A
   \   00016B   70AE         JNZ     ??SampleApp_HandleKeys_8
    638          		jiaoyan= temp%10;
   \   00016D   85....       MOV     ?V0 + 4,?V0 + 0
   \   000170   85....       MOV     ?V0 + 5,?V0 + 1
   \   000173   85....       MOV     ?V0 + 6,?V0 + 2
   \   000176   85....       MOV     ?V0 + 7,?V0 + 3
   \   000179   90....       MOV     DPTR,#__Constant_a
   \   00017C   78..         MOV     R0,#?V0 + 0
   \   00017E   12....       LCALL   ?L_MOV_X
   \   000181   78..         MOV     R0,#?V0 + 4
   \   000183   79..         MOV     R1,#?V0 + 0
   \   000185   12....       LCALL   ?UL_DIV_MOD
   \   000188   12....       LCALL   ?Subroutine10 & 0xFFFF
    639          		T[9]=jiaoyan/1000+48;
    640          		T[10]=(jiaoyan/100)%10+48;
    641          		T[11]=(jiaoyan/10)%10+48;
    642          		T[12]=jiaoyan%10+48;
    643          		HalUARTWrite(0,"\n",1);
    644          		SendKongkouInfor(T);
    645          		HalUARTWrite(0,T,13); 
    646          
    647            }
    648              /* This key sends the Flash Command is sent to Group 1.
    649               * This device will not receive the Flash Command from this
    650               * device (even if it belongs to group 1).
    651               */
    652              //SampleApp_SendFlashMessage( SAMPLEAPP_FLASH_DURATION );
    653              /*uint8* msg="1";
    654          	afAddrType_t dstAddr;
    655          	dstAddr.addrMode=Addr16Bit;//地址模式为16位短地址
    656          	dstAddr.endPoint=SAMPLEAPP_ENDPOINT;
    657          	dstAddr.addr.shortAddr=0xFFFF;//0xFFFF表示广播
    658          	AF_DataRequest( &dstAddr, &SampleApp_epDesc,
    659                                 SAMPLEAPP_MY_CLUSTERID,
    660                                 sizeof(msg),//消息长度
    661                                 msg,//消息内容,
    662                                 &SampleApp_TransID,//消息编号
    663                                 AF_DISCV_ROUTE,
    664                                 AF_DEFAULT_RADIUS );	*/	
    665             // HalLedSet(HAL_LED_2,HAL_LED_MODE_ON);
    666            	}
    667            }
   \                     ??CrossCallReturnLabel_14:
   \   00018B   12....       LCALL   ??Subroutine27_0 & 0xFFFF
   \                     ??CrossCallReturnLabel_61:
   \   00018E   12....       LCALL   ?L_MOV_X
   \   000191   90....       MOV     DPTR,#__Constant_3e8
   \   000194   78..         MOV     R0,#?V0 + 0
   \   000196   12....       LCALL   ?L_MOV_X
   \   000199   78..         MOV     R0,#?V0 + 4
   \   00019B   79..         MOV     R1,#?V0 + 0
   \   00019D   12....       LCALL   ?UL_DIV_MOD
   \   0001A0   E5..         MOV     A,?V0 + 4
   \   0001A2   12....       LCALL   ?Subroutine11 & 0xFFFF
   \                     ??CrossCallReturnLabel_53:
   \   0001A5   12....       LCALL   ?L_MOV_X
   \   0001A8   90....       MOV     DPTR,#__Constant_64
   \   0001AB   78..         MOV     R0,#?V0 + 4
   \   0001AD   12....       LCALL   ?L_MOV_X
   \   0001B0   78..         MOV     R0,#?V0 + 0
   \   0001B2   79..         MOV     R1,#?V0 + 4
   \   0001B4   12....       LCALL   ?UL_DIV_MOD
   \   0001B7   90....       MOV     DPTR,#__Constant_a
   \   0001BA   78..         MOV     R0,#?V0 + 4
   \   0001BC   12....       LCALL   ?L_MOV_X
   \   0001BF   78..         MOV     R0,#?V0 + 0
   \   0001C1   79..         MOV     R1,#?V0 + 4
   \   0001C3   12....       LCALL   ?UL_DIV_MOD
   \   0001C6   E5..         MOV     A,?V0 + 4
   \   0001C8   12....       LCALL   ??Subroutine25_0 & 0xFFFF
   \                     ??CrossCallReturnLabel_49:
   \   0001CB   12....       LCALL   ??Subroutine26_0 & 0xFFFF
   \                     ??CrossCallReturnLabel_55:
   \   0001CE   12....       LCALL   ?L_MOV_X
   \   0001D1   90....       MOV     DPTR,#__Constant_a
   \   0001D4   78..         MOV     R0,#?V0 + 4
   \   0001D6   12....       LCALL   ?L_MOV_X
   \   0001D9   78..         MOV     R0,#?V0 + 0
   \   0001DB   79..         MOV     R1,#?V0 + 4
   \   0001DD   12....       LCALL   ?UL_DIV_MOD
   \   0001E0   90....       MOV     DPTR,#__Constant_a
   \   0001E3   78..         MOV     R0,#?V0 + 4
   \   0001E5   12....       LCALL   ?L_MOV_X
   \   0001E8   78..         MOV     R0,#?V0 + 0
   \   0001EA   79..         MOV     R1,#?V0 + 4
   \   0001EC   12....       LCALL   ?UL_DIV_MOD
   \   0001EF   E5..         MOV     A,?V0 + 4
   \                     ??SampleApp_HandleKeys_6:
   \   0001F1   2430         ADD     A,#0x30
   \   0001F3   90....       MOV     DPTR,#T + 11
   \   0001F6   12....       LCALL   ??Subroutine27_0 & 0xFFFF
   \                     ??CrossCallReturnLabel_62:
   \   0001F9   12....       LCALL   ?L_MOV_X
   \   0001FC   90....       MOV     DPTR,#__Constant_a
   \   0001FF   78..         MOV     R0,#?V0 + 0
   \   000201   12....       LCALL   ?L_MOV_X
   \   000204   78..         MOV     R0,#?V0 + 4
   \   000206   79..         MOV     R1,#?V0 + 0
   \   000208   12....       LCALL   ?UL_DIV_MOD
   \   00020B   12....       LCALL   ?Subroutine18 & 0xFFFF
    668          
    669            if ( keys & HAL_KEY_SW_6 )
   \                     ??CrossCallReturnLabel_26:
   \   00020E   E5..         MOV     A,?V0 + 8
   \   000210   A2E5         MOV     C,0xE0 /* A   */.5
   \   000212   504D         JNC     ??SampleApp_HandleKeys_12
    670            {
    671              /* The Flashr Command is sent to Group 1.
    672               * This key toggles this device in and out of group 1.
    673               * If this device doesn't belong to group 1, this application
    674               * will not receive the Flash command sent to group 1.
    675               */
    676              //HalLedSet(HAL_LED_2,HAL_LED_MODE_OFF);
    677              uint8* msg="0";
    678          	afAddrType_t dstAddr;
    679          	dstAddr.addrMode=Addr16Bit;//地址模式为16位短地址
                 	                ^
Warning[Pe188]: enumerated type mixed with another type
   \   000214   7408         MOV     A,#0x8
   \   000216   12....       LCALL   ?XSTACK_DISP0_8
   \   000219   7402         MOV     A,#0x2
   \   00021B   F0           MOVX    @DPTR,A
    680          	dstAddr.endPoint=SAMPLEAPP_ENDPOINT;
   \   00021C   7409         MOV     A,#0x9
   \   00021E   12....       LCALL   ?XSTACK_DISP0_8
   \   000221   12....       LCALL   ?Subroutine9 & 0xFFFF
    681          	dstAddr.addr.shortAddr=0xFFFF;//0xFFFF表示广播
    682          	AF_DataRequest( &dstAddr, &SampleApp_epDesc,
    683                                 SAMPLEAPP_MY_CLUSTERID,
    684                                 sizeof(msg),//消息长度
    685                                 msg,//消息内容,
    686                                 &SampleApp_TransID,//消息编号
    687                                 AF_DISCV_ROUTE,
    688                                 AF_DEFAULT_RADIUS );		
    689            }
   \                     ??CrossCallReturnLabel_12:
   \   000224   12....       LCALL   ?PUSH_XSTACK_I_ONE
   \   000227   75....       MOV     ?V0 + 0,#SampleApp_TransID & 0xff
   \   00022A   75....       MOV     ?V0 + 1,#(SampleApp_TransID >> 8) & 0xff
   \   00022D   78..         MOV     R0,#?V0 + 0
   \   00022F   12....       LCALL   ?PUSH_XSTACK_I_TWO
   \   000232   75....       MOV     ?V0 + 0,#`?<Constant "0">` & 0xff
   \   000235   75....       MOV     ?V0 + 1,#(`?<Constant "0">` >> 8) & 0xff
   \   000238   78..         MOV     R0,#?V0 + 0
   \   00023A   12....       LCALL   ?PUSH_XSTACK_I_TWO
   \   00023D   75..02       MOV     ?V0 + 0,#0x2
   \   000240   75..00       MOV     ?V0 + 1,#0x0
   \   000243   78..         MOV     R0,#?V0 + 0
   \   000245   12....       LCALL   ?PUSH_XSTACK_I_TWO
   \   000248   75..03       MOV     ?V0 + 0,#0x3
   \   00024B   78..         MOV     R0,#?V0 + 0
   \   00024D   12....       LCALL   ?PUSH_XSTACK_I_TWO
   \   000250   7920         MOV     R1,#0x20
   \   000252   7C..         MOV     R4,#SampleApp_epDesc & 0xff
   \   000254   7D..         MOV     R5,#(SampleApp_epDesc >> 8) & 0xff
   \   000256   7409         MOV     A,#0x9
   \   000258   12....       LCALL   ?XSTACK_DISP0_8
   \   00025B   12....       LCALL   ?Subroutine15 & 0xFFFF
   \                     ??CrossCallReturnLabel_33:
   \   00025E   12....       LCALL   ?DEALLOC_XSTACK8
    690          }
   \                     ??SampleApp_HandleKeys_12:
   \   000261   740C         MOV     A,#0xc
   \   000263   12....       LCALL   ?DEALLOC_XSTACK8
   \   000266   7F09         MOV     R7,#0x9
   \   000268   02....       LJMP    ?BANKED_LEAVE_XDATA

   \                                 In  segment BANKED_CODE, align 1, keep-with-next
   \                     ?Subroutine13:
   \   000000   F0           MOVX    @DPTR,A
   \   000001   7910         MOV     R1,#0x10
   \   000003   90....       MOV     DPTR,#__Constant_0
   \   000006   78..         MOV     R0,#?V0 + 0
   \   000008   22           RET

   \                                 In  segment BANKED_CODE, align 1, keep-with-next
   \                     ?Subroutine6:
   \   000000   F0           MOVX    @DPTR,A
   \   000001   12....       LCALL   ?Subroutine20 & 0xFFFF
   \                     ??CrossCallReturnLabel_30:
   \   000004   04           INC     A
   \   000005   F0           MOVX    @DPTR,A
   \   000006   A3           INC     DPTR
   \   000007   7430         MOV     A,#0x30
   \   000009   F0           MOVX    @DPTR,A
   \   00000A   A3           INC     DPTR
   \   00000B   F0           MOVX    @DPTR,A
   \   00000C   A3           INC     DPTR
   \   00000D   F0           MOVX    @DPTR,A
   \   00000E   A3           INC     DPTR
   \   00000F   F0           MOVX    @DPTR,A
   \   000010   A3           INC     DPTR
   \   000011   22           RET
    691          
    692          /*********************************************************************
    693           * LOCAL FUNCTIONS
    694           */
    695          
    696          /*********************************************************************
    697           * @fn      SampleApp_MessageMSGCB
    698           *
    699           * @brief   Data message processor callback.  This function processes
    700           *          any incoming data - probably from other devices.  So, based
    701           *          on cluster ID, perform the intended action.
    702           *
    703           * @param   none
    704           *
    705           * @return  none
    706           */

   \                                 In  segment BANKED_CODE, align 1, keep-with-next
    707          void SampleApp_MessageMSGCB( afIncomingMSGPacket_t *pkt )
   \                     SampleApp_MessageMSGCB:
    708          {
   \   000000   74F6         MOV     A,#-0xa
   \   000002   12....       LCALL   ?BANKED_ENTER_XDATA
   \   000005                ; Saved register size: 10
   \   000005                ; Auto size: 0
   \   000005   EA           MOV     A,R2
   \   000006   FE           MOV     R6,A
   \   000007   EB           MOV     A,R3
   \   000008   FF           MOV     R7,A
    709            uint16 flashTime;
    710          
    711            switch ( pkt->clusterId )
   \   000009   8E82         MOV     DPL,R6
   \   00000B   8F83         MOV     DPH,R7
   \   00000D   A3           INC     DPTR
   \   00000E   A3           INC     DPTR
   \   00000F   A3           INC     DPTR
   \   000010   A3           INC     DPTR
   \   000011   E0           MOVX    A,@DPTR
   \   000012   F5..         MOV     ?V0 + 0,A
   \   000014   A3           INC     DPTR
   \   000015   E0           MOVX    A,@DPTR
   \   000016   F5..         MOV     ?V0 + 1,A
   \   000018   78..         MOV     R0,#?V0 + 0
   \   00001A   12....       LCALL   ?US_SWITCH_DENSE
   \                     `?<Jumptable for SampleApp_MessageMSGCB>_0`:
   \   00001D   0200         DW        2
   \   00001F   01           DB        1
   \   000020   ....         DW        ??SampleApp_MessageMSGCB_0
   \   000022   ....         DW        ??SampleApp_MessageMSGCB_1
   \   000024   ....         DW        ??SampleApp_MessageMSGCB_2
    712            {
    713              case SAMPLEAPP_PERIODIC_CLUSTERID:
    714                break;
    715          
    716              case SAMPLEAPP_FLASH_CLUSTERID:
    717                flashTime = BUILD_UINT16(pkt->cmd.Data[1], pkt->cmd.Data[2] );
    718                HalLedBlink( HAL_LED_4, 4, 50, (flashTime / 4) );
   \                     ??SampleApp_MessageMSGCB_1:
   \   000026   12....       LCALL   ?Subroutine17 & 0xFFFF
   \                     ??CrossCallReturnLabel_23:
   \   000029   12....       LCALL   ?Subroutine3 & 0xFFFF
   \                     ??CrossCallReturnLabel_1:
   \   00002C   A3           INC     DPTR
   \   00002D   E0           MOVX    A,@DPTR
   \   00002E   FA           MOV     R2,A
   \   00002F   8882         MOV     DPL,R0
   \   000031   8983         MOV     DPH,R1
   \   000033   A3           INC     DPTR
   \   000034   A3           INC     DPTR
   \   000035   E0           MOVX    A,@DPTR
   \   000036   F9           MOV     R1,A
   \   000037   EA           MOV     A,R2
   \   000038   2400         ADD     A,#0x0
   \   00003A   F5..         MOV     ?V0 + 0,A
   \   00003C   E4           CLR     A
   \   00003D   39           ADDC    A,R1
   \   00003E   F5..         MOV     ?V0 + 1,A
   \   000040   7402         MOV     A,#0x2
   \   000042   78..         MOV     R0,#?V0 + 0
   \   000044   12....       LCALL   ?US_SHR
   \   000047   AC..         MOV     R4,?V0 + 0
   \   000049   AD..         MOV     R5,?V0 + 1
   \   00004B   7B32         MOV     R3,#0x32
   \   00004D   7A04         MOV     R2,#0x4
   \   00004F   7908         MOV     R1,#0x8
   \   000051   12....       LCALL   ??HalLedBlink?relay
    719                break;
   \   000054   805B         SJMP    ??SampleApp_MessageMSGCB_0
    720          	
    721              case SAMPLEAPP_MY_CLUSTERID:   // 我们自定义的消息
    722          		/*HalUARTWrite(0,pkt->cmd.Data,pkt->cmd.DataLength);	// 空口消息转发
    723                  if(pkt->cmd.Data[0]=='1')
    724          		HalLedSet(HAL_LED_2,HAL_LED_MODE_ON);
    725          		if(pkt->cmd.Data[0]=='0')
    726          		HalLedSet(HAL_LED_2,HAL_LED_MODE_OFF);*/
    727                  HalUARTWrite(0,pkt->cmd.Data,pkt->cmd.DataLength);	// 空口消息转发
   \                     ??SampleApp_MessageMSGCB_2:
   \   000056                ; Setup parameters for call to function HalUARTWrite
   \   000056   EE           MOV     A,R6
   \   000057   2420         ADD     A,#0x20
   \   000059   F582         MOV     DPL,A
   \   00005B   EF           MOV     A,R7
   \   00005C   3400         ADDC    A,#0x0
   \   00005E   F583         MOV     DPH,A
   \   000060   E0           MOVX    A,@DPTR
   \   000061   FC           MOV     R4,A
   \   000062   A3           INC     DPTR
   \   000063   E0           MOVX    A,@DPTR
   \   000064   FD           MOV     R5,A
   \   000065   12....       LCALL   ?Subroutine17 & 0xFFFF
   \                     ??CrossCallReturnLabel_24:
   \   000068   E0           MOVX    A,@DPTR
   \   000069   FA           MOV     R2,A
   \   00006A   A3           INC     DPTR
   \   00006B   E0           MOVX    A,@DPTR
   \   00006C   FB           MOV     R3,A
   \   00006D   7900         MOV     R1,#0x0
   \   00006F   12....       LCALL   ??HalUARTWrite?relay
    728          		uint8* q=(uint8*)pkt;
    729          
    730          		uint8* ch=q;
    731          		JieQu(ch,3,1);
   \   000072   8E82         MOV     DPL,R6
   \   000074   8F83         MOV     DPH,R7
   \   000076   12....       LCALL   ??Subroutine23_0 & 0xFFFF
    732          		if(subch=='3')JieQu(ch,6,1);
   \                     ??CrossCallReturnLabel_43:
   \   000079   6433         XRL     A,#0x33
   \   00007B   700A         JNZ     ??CrossCallReturnLabel_44
   \   00007D   8E82         MOV     DPL,R6
   \   00007F   8F83         MOV     DPH,R7
   \   000081   A3           INC     DPTR
   \   000082   A3           INC     DPTR
   \   000083   A3           INC     DPTR
   \   000084   12....       LCALL   ??Subroutine23_0 & 0xFFFF
    733          		if(subch=='1')f=1;
   \                     ??CrossCallReturnLabel_44:
   \   000087   E0           MOVX    A,@DPTR
   \   000088   6431         XRL     A,#0x31
   \   00008A   90....       MOV     DPTR,#f
   \   00008D   7004         JNZ     ??SampleApp_MessageMSGCB_3
   \   00008F   7401         MOV     A,#0x1
   \   000091   8001         SJMP    ??SampleApp_MessageMSGCB_4
    734          		else f=0;
   \                     ??SampleApp_MessageMSGCB_3:
   \   000093   E4           CLR     A
   \                     ??SampleApp_MessageMSGCB_4:
   \   000094   F0           MOVX    @DPTR,A
    735          		JieQu(ch,3,1);
   \   000095   8E82         MOV     DPL,R6
   \   000097   8F83         MOV     DPH,R7
   \   000099   12....       LCALL   ??Subroutine23_0 & 0xFFFF
    736          		if(subch=='4')s=0;
   \                     ??CrossCallReturnLabel_45:
   \   00009C   6434         XRL     A,#0x34
   \   00009E   7006         JNZ     ??SampleApp_MessageMSGCB_5
   \   0000A0   90....       MOV     DPTR,#`s`
   \   0000A3   E4           CLR     A
   \   0000A4   800A         SJMP    ??SampleApp_MessageMSGCB_6
    737          		else if (subch=='2'){
   \                     ??SampleApp_MessageMSGCB_5:
   \   0000A6   E0           MOVX    A,@DPTR
   \   0000A7   6432         XRL     A,#0x32
   \   0000A9   7006         JNZ     ??SampleApp_MessageMSGCB_0
    738                  w[0]=1;
   \   0000AB   90....       MOV     DPTR,#w
   \   0000AE   7401         MOV     A,#0x1
   \                     ??SampleApp_MessageMSGCB_6:
   \   0000B0   F0           MOVX    @DPTR,A
    739          		}
    740          		break;
    741            }
    742          }
   \                     ??SampleApp_MessageMSGCB_0:
   \   0000B1   02....       LJMP    ??Subroutine28_0 & 0xFFFF

   \                                 In  segment BANKED_CODE, align 1, keep-with-next
   \                     ?Subroutine17:
   \   000000   EE           MOV     A,R6
   \   000001   2422         ADD     A,#0x22
   \   000003   F582         MOV     DPL,A
   \   000005   EF           MOV     A,R7
   \   000006   3400         ADDC    A,#0x0
   \   000008   F583         MOV     DPH,A
   \   00000A   22           RET
    743          
    744          /*********************************************************************
    745           * @fn      SampleApp_SendPeriodicMessage
    746           *
    747           * @brief   Send the periodic message.
    748           *
    749           * @param   none
    750           *
    751           * @return  none
    752           */

   \                                 In  segment BANKED_CODE, align 1, keep-with-next
    753          void SampleApp_SendPeriodicMessage( void )
   \                     SampleApp_SendPeriodicMessage:
    754          {
   \   000000   74F6         MOV     A,#-0xa
   \   000002   12....       LCALL   ?BANKED_ENTER_XDATA
   \   000005                ; Saved register size: 10
   \   000005                ; Auto size: 0
    755            if ( AF_DataRequest( &SampleApp_Periodic_DstAddr, &SampleApp_epDesc,
    756                                 SAMPLEAPP_PERIODIC_CLUSTERID,
    757                                 1,
    758                                 (uint8*)&SampleAppPeriodicCounter,
    759                                 &SampleApp_TransID,
    760                                 AF_DISCV_ROUTE,
    761                                 AF_DEFAULT_RADIUS ) == afStatus_SUCCESS )
   \   000005                ; Setup parameters for call to function AF_DataRequest
   \   000005   75..1E       MOV     ?V0 + 0,#0x1e
   \   000008   78..         MOV     R0,#?V0 + 0
   \   00000A   12....       LCALL   ?PUSH_XSTACK_I_ONE
   \   00000D   75....       MOV     ?V0 + 0,#SampleApp_TransID & 0xff
   \   000010   75....       MOV     ?V0 + 1,#(SampleApp_TransID >> 8) & 0xff
   \   000013   78..         MOV     R0,#?V0 + 0
   \   000015   12....       LCALL   ?PUSH_XSTACK_I_TWO
   \   000018   75....       MOV     ?V0 + 0,#SampleAppPeriodicCounter & 0xff
   \   00001B   75....       MOV     ?V0 + 1,#(SampleAppPeriodicCounter >> 8) & 0xff
   \   00001E   78..         MOV     R0,#?V0 + 0
   \   000020   12....       LCALL   ?PUSH_XSTACK_I_TWO
   \   000023   75..01       MOV     ?V0 + 0,#0x1
   \   000026   75..00       MOV     ?V0 + 1,#0x0
   \   000029   78..         MOV     R0,#?V0 + 0
   \   00002B   12....       LCALL   ?PUSH_XSTACK_I_TWO
   \   00002E   78..         MOV     R0,#?V0 + 0
   \   000030   12....       LCALL   ?PUSH_XSTACK_I_TWO
   \   000033   7920         MOV     R1,#0x20
   \   000035   7C..         MOV     R4,#SampleApp_epDesc & 0xff
   \   000037   7D..         MOV     R5,#(SampleApp_epDesc >> 8) & 0xff
   \   000039   7A..         MOV     R2,#SampleApp_Periodic_DstAddr & 0xff
   \   00003B   7B..         MOV     R3,#(SampleApp_Periodic_DstAddr >> 8) & 0xff
   \   00003D   12....       LCALL   ??Subroutine21_0 & 0xFFFF
   \                     ??CrossCallReturnLabel_34:
   \   000040   80..         SJMP    ?Subroutine0
    762            {
    763            }
    764            else
    765            {
    766              // Error occurred in request to send.
    767            }
    768          }
    769          
    770          /*********************************************************************
    771           * @fn      SampleApp_SendFlashMessage
    772           *
    773           * @brief   Send the flash message to group 1.
    774           *
    775           * @param   flashTime - in milliseconds
    776           *
    777           * @return  none
    778           */

   \                                 In  segment BANKED_CODE, align 1, keep-with-next
    779          void SampleApp_SendFlashMessage( uint16 flashTime )
   \                     SampleApp_SendFlashMessage:
    780          {
   \   000000   74F6         MOV     A,#-0xa
   \   000002   12....       LCALL   ?BANKED_ENTER_XDATA
   \   000005                ; Saved register size: 10
   \   000005                ; Auto size: 3
   \   000005   74FD         MOV     A,#-0x3
   \   000007   12....       LCALL   ?ALLOC_XSTACK8
    781            uint8 buffer[3];
    782            buffer[0] = (uint8)(SampleAppFlashCounter++);
   \   00000A   90....       MOV     DPTR,#SampleAppFlashCounter
   \   00000D   E0           MOVX    A,@DPTR
   \   00000E   85..82       MOV     DPL,?XSP + 0
   \   000011   85..83       MOV     DPH,?XSP + 1
   \   000014   F0           MOVX    @DPTR,A
   \   000015   90....       MOV     DPTR,#SampleAppFlashCounter
   \   000018   E0           MOVX    A,@DPTR
   \   000019   04           INC     A
   \   00001A   F0           MOVX    @DPTR,A
    783            buffer[1] = LO_UINT16( flashTime );
   \   00001B   7401         MOV     A,#0x1
   \   00001D   12....       LCALL   ?XSTACK_DISP0_8
   \   000020   EA           MOV     A,R2
   \   000021   F0           MOVX    @DPTR,A
    784            buffer[2] = HI_UINT16( flashTime );
   \   000022   7402         MOV     A,#0x2
   \   000024   12....       LCALL   ?XSTACK_DISP0_8
   \   000027   EB           MOV     A,R3
   \   000028   F0           MOVX    @DPTR,A
    785          
    786            if ( AF_DataRequest( &SampleApp_Flash_DstAddr, &SampleApp_epDesc,
    787                                 SAMPLEAPP_FLASH_CLUSTERID,
    788                                 3,
    789                                 buffer,
    790                                 &SampleApp_TransID,
    791                                 AF_DISCV_ROUTE,
    792                                 AF_DEFAULT_RADIUS ) == afStatus_SUCCESS )
   \   000029                ; Setup parameters for call to function AF_DataRequest
   \   000029   75..1E       MOV     ?V0 + 0,#0x1e
   \   00002C   78..         MOV     R0,#?V0 + 0
   \   00002E   12....       LCALL   ?PUSH_XSTACK_I_ONE
   \   000031   75....       MOV     ?V0 + 0,#SampleApp_TransID & 0xff
   \   000034   75....       MOV     ?V0 + 1,#(SampleApp_TransID >> 8) & 0xff
   \   000037   78..         MOV     R0,#?V0 + 0
   \   000039   12....       LCALL   ?PUSH_XSTACK_I_TWO
   \   00003C   7403         MOV     A,#0x3
   \   00003E   12....       LCALL   ?XSTACK_DISP0_8
   \   000041   8582..       MOV     ?V0 + 0,DPL
   \   000044   8583..       MOV     ?V0 + 1,DPH
   \   000047   78..         MOV     R0,#?V0 + 0
   \   000049   12....       LCALL   ?PUSH_XSTACK_I_TWO
   \   00004C   75..03       MOV     ?V0 + 0,#0x3
   \   00004F   75..00       MOV     ?V0 + 1,#0x0
   \   000052   78..         MOV     R0,#?V0 + 0
   \   000054   12....       LCALL   ?PUSH_XSTACK_I_TWO
   \   000057   75..02       MOV     ?V0 + 0,#0x2
   \   00005A   78..         MOV     R0,#?V0 + 0
   \   00005C   12....       LCALL   ?PUSH_XSTACK_I_TWO
   \   00005F   7920         MOV     R1,#0x20
   \   000061   7C..         MOV     R4,#SampleApp_epDesc & 0xff
   \   000063   7D..         MOV     R5,#(SampleApp_epDesc >> 8) & 0xff
   \   000065   7A..         MOV     R2,#SampleApp_Flash_DstAddr & 0xff
   \   000067   7B..         MOV     R3,#(SampleApp_Flash_DstAddr >> 8) & 0xff
   \   000069   12....       LCALL   ??Subroutine21_0 & 0xFFFF
   \                     ??CrossCallReturnLabel_35:
   \   00006C   12....       LCALL   ?DEALLOC_XSTACK8
    793            {
    794            }
    795            else
    796            {
    797              // Error occurred in request to send.
    798            }
    799          }
   \   00006F   7403         MOV     A,#0x3
   \   000071                REQUIRE ?Subroutine0
   \   000071                ; // Fall through to label ?Subroutine0

   \                                 In  segment BANKED_CODE, align 1, keep-with-next
   \                     ?Subroutine1:
   \   000000   85..82       MOV     DPL,?V0 + 2
   \   000003   85..83       MOV     DPH,?V0 + 3
   \   000006                REQUIRE ??Subroutine23_0
   \   000006                ; // Fall through to label ??Subroutine23_0

   \                                 In  segment BANKED_CODE, align 1, keep-with-next
   \                     ??Subroutine23_0:
   \   000000   A3           INC     DPTR
   \   000001   A3           INC     DPTR
   \   000002   A3           INC     DPTR
   \   000003                REQUIRE ??Subroutine24_0
   \   000003                ; // Fall through to label ??Subroutine24_0

   \                                 In  segment BANK_RELAYS, align 1
   \                     ??JieQu?relay:
   \   000000   12....       LCALL   ?BDISPATCH
   \   000003   ......       DC24    JieQu

   \                                 In  segment BANK_RELAYS, align 1
   \                     ??SendKongkouInfor?relay:
   \   000000   12....       LCALL   ?BDISPATCH
   \   000003   ......       DC24    SendKongkouInfor

   \                                 In  segment BANK_RELAYS, align 1
   \                     ??SampleApp_Init?relay:
   \   000000   12....       LCALL   ?BDISPATCH
   \   000003   ......       DC24    SampleApp_Init

   \                                 In  segment BANK_RELAYS, align 1
   \                     ??SampleApp_ProcessEvent?relay:
   \   000000   12....       LCALL   ?BDISPATCH
   \   000003   ......       DC24    SampleApp_ProcessEvent

   \                                 In  segment BANK_RELAYS, align 1
   \                     ??SampleApp_HandleKeys?relay:
   \   000000   12....       LCALL   ?BDISPATCH
   \   000003   ......       DC24    SampleApp_HandleKeys

   \                                 In  segment BANK_RELAYS, align 1
   \                     ??SampleApp_MessageMSGCB?relay:
   \   000000   12....       LCALL   ?BDISPATCH
   \   000003   ......       DC24    SampleApp_MessageMSGCB

   \                                 In  segment BANK_RELAYS, align 1
   \                     ??SampleApp_SendPeriodicMessage?relay:
   \   000000   12....       LCALL   ?BDISPATCH
   \   000003   ......       DC24    SampleApp_SendPeriodicMessage

   \                                 In  segment BANK_RELAYS, align 1
   \                     ??SampleApp_SendFlashMessage?relay:
   \   000000   12....       LCALL   ?BDISPATCH
   \   000003   ......       DC24    SampleApp_SendFlashMessage

   \                                 In  segment XDATA_ROM_C, align 1
   \                     `?<Constant "Group 1">`:
   \   000000   47726F75     DB "Group 1"
   \            70203100

   \                                 In  segment XDATA_ROM_C, align 1
   \                     `?<Constant "\\n">`:
   \   000000   0A00         DB "\012"

   \                                 In  segment XDATA_ROM_C, align 1
   \                     `?<Constant "0">`:
   \   000000   3000         DB "0"

   \                                 In  segment XDATA_ROM_C, align 1
   \                     __Constant_0:
   \   000000   00000000     DD 0

   \                                 In  segment XDATA_ROM_C, align 1
   \                     __Constant_10000:
   \   000000   00000100     DD 65536

   \                                 In  segment XDATA_ROM_C, align 1
   \                     __Constant_11021:
   \   000000   21100100     DD 69665

   \                                 In  segment XDATA_ROM_C, align 1
   \                     __Constant_1021:
   \   000000   21100000     DD 4129

   \                                 In  segment XDATA_ROM_C, align 1
   \                     __Constant_a:
   \   000000   0A000000     DD 10

   \                                 In  segment XDATA_ROM_C, align 1
   \                     __Constant_3e8:
   \   000000   E8030000     DD 1000

   \                                 In  segment XDATA_ROM_C, align 1
   \                     __Constant_64:
   \   000000   64000000     DD 100
    800          
    801          /*********************************************************************
    802          *********************************************************************/

   Maximum stack usage in bytes:

     Function                       ISTACK PSTACK XSTACK
     --------                       ------ ------ ------
     JieQu                              2      0      2
     SampleApp_HandleKeys               0      0     71
       -> HalUARTWrite                  0      0     58
       -> SendKongkouInfor              0      0     58
       -> HalUARTWrite                  0      0     58
       -> HalUARTWrite                  0      0     58
       -> SendKongkouInfor              0      0     58
       -> HalUARTWrite                  0      0     58
       -> AF_DataRequest                0      0     76
     SampleApp_Init                     0      0     14
       -> MT_UartInit                   0      0     22
       -> osal_set_event                0      0     22
       -> osal_set_event                0      0     22
       -> osal_set_event                0      0     22
       -> MT_UartRegisterTaskID         0      0     22
       -> afRegister                    0      0     22
       -> RegisterForKeys               0      0     22
       -> osal_memcpy                   0      0     28
       -> aps_AddGroup                  0      0     22
     SampleApp_MessageMSGCB             0      0     43
       -> HalLedBlink                   0      0     20
       -> HalUARTWrite                  0      0     20
     SampleApp_ProcessEvent             0      0     42
       -> osal_msg_receive              0      0     66
       -> SampleApp_HandleKeys          0      0     66
       -> SampleApp_MessageMSGCB        0      0     66
       -> osal_start_timerEx            0      0     66
       -> AF_DataRequest                0      0     84
       -> osal_msg_deallocate           0      0     66
       -> osal_msg_receive              0      0     66
       -> SampleApp_SendPeriodicMessage
                                        0      0     66
       -> osal_rand                     0      0     66
       -> osal_start_timerEx            0      0     66
       -> HalUARTWrite                  0      0     66
       -> SendKongkouInfor              0      0     66
       -> HalUARTWrite                  0      0     66
       -> HalUARTWrite                  0      0     66
       -> SendKongkouInfor              0      0     66
       -> HalUARTWrite                  0      0     66
       -> osal_start_timerEx            0      0     66
       -> HalLedSet                     0      0     66
       -> HalLedSet                     0      0     66
       -> HalLedSet                     0      0     66
       -> HalLedSet                     0      0     66
       -> osal_start_timerEx            0      0     66
       -> HalLedSet                     0      0     66
       -> HalLedSet                     0      0     66
       -> osal_start_timerEx            0      0     66
     SampleApp_SendFlashMessage         1      0     22
       -> AF_DataRequest                0      0     44
     SampleApp_SendPeriodicMessage      0      0     52
       -> AF_DataRequest                0      0     38
     SendKongkouInfor                   0      0     64
       -> AF_DataRequest                0      0     62


   Segment part sizes:

     Function/Label                        Bytes
     --------------                        -----
     _A_P2                                    1
     P2SEL                                    1
     P2DIR                                    1
     SampleApp_ClusterList                    6
     SampleApp_SimpleDesc                    12
     SampleApp_epDesc                         6
     SampleApp_TaskID                         1
     SampleApp_NwkState                       1
     SampleApp_TransID                        1
     SampleApp_Periodic_DstAddr              12
     SampleApp_Flash_DstAddr                 12
     SampleApp_Group                         18
     SampleAppPeriodicCounter                 1
     SampleAppFlashCounter                    1
     subch                                    1
     jiaoyan                                  4
     T                                       13
     f                                        1
     s                                        1
     e                                        1
     r                                        1
     z                                        1
     w                                        1
     JieQu                                   23
     ??Subroutine24_0                         6
     SendKongkouInfor                        90
     ?Subroutine15                            4
     ??Subroutine21_0                         6
     ?Subroutine9                             9
     ?Subroutine19                           15
     ?Subroutine0                             3
     ??Subroutine28_0                         5
     SampleApp_Init                         182
     ?Subroutine4                            11
     SampleApp_ProcessEvent                1034
     ?Subroutine12                            9
     ?Subroutine7                            18
     ?Subroutine5                             7
     ?Subroutine2                             2
     ??Subroutine22_0                        11
     ?Subroutine18                           42
     ?Subroutine16                            2
     ??Subroutine25_0                         6
     ?Subroutine14                            9
     ?Subroutine11                            5
     ??Subroutine26_0                         7
     ?Subroutine10                           18
     ?Subroutine8                             7
     ??Subroutine27_0                         7
     ?Subroutine20                           16
     ?Subroutine3                            10
     SampleApp_HandleKeys                   619
     ?Subroutine13                            9
     ?Subroutine6                            18
     SampleApp_MessageMSGCB                 180
     ?Subroutine17                           11
     SampleApp_SendPeriodicMessage           66
     SampleApp_SendFlashMessage             113
     ?Subroutine1                             6
     ??Subroutine23_0                         3
     ??JieQu?relay                            6
     ??SendKongkouInfor?relay                 6
     ??SampleApp_Init?relay                   6
     ??SampleApp_ProcessEvent?relay           6
     ??SampleApp_HandleKeys?relay             6
     ??SampleApp_MessageMSGCB?relay           6
     ??SampleApp_SendPeriodicMessage?relay    6
     ??SampleApp_SendFlashMessage?relay       6
     ?<Constant "Group 1">                    8
     ?<Constant "\n">                         2
     ?<Constant "0">                          2
     __Constant_0                             4
     __Constant_10000                         4
     __Constant_11021                         4
     __Constant_1021                          4
     __Constant_a                             4
     __Constant_3e8                           4
     __Constant_64                            4

 
 2 589 bytes in segment BANKED_CODE
    48 bytes in segment BANK_RELAYS
     3 bytes in segment SFR_AN
    58 bytes in segment XDATA_ROM_C
    77 bytes in segment XDATA_Z
 
 2 637 bytes of CODE  memory
    30 bytes of CONST memory (+ 28 bytes shared)
     0 bytes of DATA  memory (+  3 bytes shared)
    77 bytes of XDATA memory

Errors: none
Warnings: 6
